Sunplus u'nSP Assembler - Ver. 1.14.12
              Listing File Has Been Relocated
                            	.INCLUDE  hardware.inc
                     <      	//========================================================================================
                     <      	// Progarm: The file be included by modules
                     <      	// Arranged by: Andy Hsu
                     <      	// Date: 	2000/06/23: first version
                     <      	//		2000/07/24: modified
                     <      	//		2000/10/20: modified for version 52A chip sacmv25.lib
                     <      	//		2001/10/07: modified for sacmv25f.lib
                     <      	// 		2001/11/06: Independent Queue for A2000/S480/MS01 Manual Mode
                     <      	//		2001/11/06: Fix volume parameter problem - sacmv25i.lib
                     <      	//
                     <      	// For: sacmV25n.lib
                     <      	//
                     <      	//========================================================================================
                     <      	
                     <      	//////////////////////////////////////////////////////////////////
                     <      	// Definitions for I/O Port
                     <      	//////////////////////////////////////////////////////////////////
                     <      	.DEFINE	P_IOA_Data   		0x7000         // Write Data into data register and read from IOA pad
                     <      	.DEFINE P_IOA_Buffer        0x7001         // Write Data into buffer register and read from buffer register
                     <      	.DEFINE P_IOA_Dir           0x7002         // Direction vector for IOA
                     <      	.DEFINE P_IOA_Attrib        0x7003         // Attribute vector for IOA
                     <      	.DEFINE P_IOA_Latch         0x7004         // Latch PortA data for key change wake-up
                     <      	
                     <      	.DEFINE P_IOB_Data         	0x7005         // Write Data into the data register and read from IOB pad
                     <      	.DEFINE P_IOB_Buffer        0x7006         // Write Data into buffer register and read from buffer register
                     <      	.DEFINE P_IOB_Dir           0x7007         // Direction vector for IOB
                     <      	.DEFINE P_IOB_Attrib        0x7008         // Attribute vector for IOB
                     <      	
                     <      	.DEFINE P_FeedBack          0x7009         // Clock form external R,C
                     <      	.DEFINE P_TimerA_Data       0x700A         // Data port for TimerA 
                     <      	.DEFINE P_TimerA_Ctrl       0x700B         // Control Port for TimerA
                     <      	.DEFINE P_TimerB_Data       0x700C         // Data port for TimerB
                     <      	.DEFINE P_TimerB_Ctrl       0x700D         // Control Port for TimerB
                     <      	.DEFINE P_TimeBase_Setup    0x700E         // TimerBase Freq. Set
                     <      	.DEFINE P_TimeBase_Clear	0x700F 		   // Reset Timerbase counter
                     <      	.DEFINE P_INT_Ctrl          0x7010         // Control port for interrupt source
                     <      	.DEFINE P_INT_Clear         0x7011         // Clear interrupt source
                     <      	//.DEFINE P_Watchdog_Clear    0x7012         // Watchdog Reset
                     <      	.DEFINE P_SystemClock       0x7013         // Change system clock frequency(include go to standby mode)
                     <      	
                     <      	//... PA6442 New version MC52A (For EC-03)....
                     <      	.DEFINE P_ADC 	        	0x7014         	// Data Port for AD
                     <      	.DEFINE P_ADC_Ctrl          0x7015         	// Control Port for AD control
                     <      	.DEFINE P_ADC_Status        0x7015         	// AD Port Status
                     <      	.DEFINE P_DAC2              0x7016         	// Data Port for DAC2
                     <      	.DEFINE P_PWM               0x7016         	// Data Port for PWM
                     <      	.DEFINE P_DAC1	        	0x7017         	// Data Port for DAC1
                     <      	.DEFINE P_DAC_Ctrl			0x702A 			// Control Port for two DAC and audio output mode
                     <      	//............................................
                     <      	
                     <      	.DEFINE P_IR_Ctrl			0x7018 			// Control Port for IR
                     <      	.DEFINE P_LVD_Ctrl          0x7019         	// Control Port for LVD
                     <      	.DEFINE P_SIO_Data			0x701A 			// Data port for serial IO
                     <      	.DEFINE P_SIO_Addr_Low		0x701B 			// Address Port low
                     <      	.DEFINE P_SIO_Addr_Mid		0x701C 			// Address Port middle
                     <      	.DEFINE P_SIO_Addr_High	 	0x701D 			// Address Port high
                     <      	.DEFINE P_SIO_Ctrl			0x701E 			// Control Port
                     <      	.DEFINE P_SIO_Start			0x701F 			// Start port for serial interface
                     <      	.DEFINE P_SIO_Stop			0x7020 			// Stop port for serial interface
                     <      	
                     <      	.DEFINE P_UART_Command1		 0x7021 		// Command1 Port for UART
                     <      	.DEFINE P_UART_Command2		 0x7022 		// Command2 Port for UART
                     <      	.DEFINE P_UART_Data			 0x7023  		// Data Port for UART
                     <      	.DEFINE	P_UART_BaudScalarLow 0x7024 		// Set Baud Rate scalar low
                     <      	.DEFINE	P_UART_BaudScalarHigh 0x7025 		// Set Baud Rate scalar high
                     <      	
                     <      	
                     <      	//... Definitions for P_INT_Ctrl ..............
                     <      	.DEFINE C_IRQ6_TMB2             0x0001         	// Timer B IRQ6
                     <      	.DEFINE C_IRQ6_TMB1             0x0002         	// Timer A IRQ6
                     <      	.DEFINE C_IRQ5_2Hz              0x0004         	// 2Hz IRQ5
                     <      	.DEFINE C_IRQ5_4Hz              0x0008         	// 4Hz IRQ5
                     <      	.DEFINE C_IRQ4_1KHz             0x0010         	// 1024Hz IRQ4
                     <      	.DEFINE C_IRQ4_2KHz             0x0020         	// 2048Hz IRQ4
                     <      	.DEFINE C_IRQ4_4KHz             0x0040         	// 4096Hz IRQ4
                     <      	.DEFINE C_IRQ3_KEY              0x0080         	// Key Change IRQ3
                     <      	.DEFINE C_IRQ3_EXT1             0x0100         	// Ext1 IRQ3
                     <      	.DEFINE C_IRQ3_EXT2             0x0200         	// Ext2 IRQ3
                     <      	.DEFINE C_IRQ2_TMB              0x0400         	// Timer B IRQ2
                     <      	.DEFINE C_FIQ_TMB               0x0800         	// Timer B FIQ
                     <      	.DEFINE C_IRQ1_TMA              0x1000         	// Timer A IRQ1
                     <      	.DEFINE C_FIQ_TMA               0x2000         	// Timer A FIQ
                     <      	.DEFINE C_IRQ0_PWM              0x4000         	// PWM IRQ0
                     <      	.DEFINE C_FIQ_PWM               0x8000         	// PWM FIQ
                     <      	
                     <      	// Definitions for P_TimerA/B_Ctrl ............                               
                     <      	.DEFINE	C_Fosc_2				0x0000 			// 
                     <      	.DEFINE	C_Fosc_256		    	0x0001 			//
                     <      	.DEFINE	C_32768Hz				0x0002 			//
                     <      	.DEFINE	C_8192Hz				0x0003 			//
                     <      	.DEFINE	C_4096Hz				0x0004 			//
                     <      	.DEFINE	C_A1					0x0005 			//
                     <      	.DEFINE C_A0					0x0006 			//
                     <      	.DEFINE C_Ext1					0x0007 			//
                     <      	
                     <      	.DEFINE	C_2048Hz				0x0000 			//
                     <      	.DEFINE	C_1024Hz				0x0008 			//
                     <      	.DEFINE	C_256Hz					0x0010 			//
                     <      	.DEFINE	C_TMB1Hz				0x0018 			//
                     <      	.DEFINE	C_4Hz					0x0020 			//
                     <      	.DEFINE	C_2Hz					0x0028 			//
                     <      	.DEFINE	C_B1					0x0030 			//
                     <      	.DEFINE	C_Ext2					0x0038 			//
                     <      	
                     <      	.DEFINE	C_Off					0x0000 			//
                     <      	.DEFINE C_D1					0x0040 			//
                     <      	.DEFINE C_D2					0x0080 			//
                     <      	.DEFINE C_D3					0x00C0 			//
                     <      	.DEFINE C_D4					0x0100 			//
                     <      	.DEFINE C_D5					0x0140 			//
                     <      	.DEFINE C_D6					0x0180 			//
                     <      	.DEFINE C_D7					0x01C0 			//
                     <      	.DEFINE C_D8					0x0200 			//
                     <      	.DEFINE C_D9					0x0240 			//
                     <      	.DEFINE C_D10					0x0280 			//
                     <      	.DEFINE C_D11					0x02C0 			//
                     <      	.DEFINE C_D12					0x0300 			//
                     <      	.DEFINE C_D13					0x0340 			//
                     <      	.DEFINE C_D14					0x0380 			//
                     <      	.DEFINE C_TA_Div_2				0x03C0 			// Timer A
                     <      	.DEFINE C_TB_Div_2				0x03C0 			// Timer B
                     <      	
                     <      	//... Definition for P_SystemClock ............
                     <      	.DEFINE C_Fosc					0x0000 			// b3..b0
                     <      	.DEFINE C_Fosc_Div_2			0x0001 			//
                     <      	.DEFINE C_Fosc_Div_4			0x0002 			//
                     <      	.DEFINE C_Fosc_Div_8			0x0003 			// (default)
                     <      	.DEFINE C_Fosc_Div_16			0x0004 			//
                     <      	.DEFINE C_Fosc_Div_32			0x0005 			//
                     <      	.DEFINE C_Fosc_Div_64			0x0006 			//
                     <      	.DEFINE C_Sleep					0x0007 		 	//
                     <      	
                     <      	.DEFINE	C_32K_Work				0x0000 			// b4
                     <      	.DEFINE C_32K_Off				0x0000 			// 
                     <      	.DEFINE C_StrongMode			0x0000 			// b5
                     <      	.DEFINE C_AutoMode				0x0000 			//
                     <      	
                     <      	//... Define for P_AD_Ctrl ....................
                     <      	.DEFINE	C_AD					0x0001 			//
                     <      	.DEFINE C_DA					0x0000 			//
                     <      	.DEFINE C_MIC					0x0000 			//
                     <      	.DEFINE C_LINE					0x0002 			//
                     <      	
                     <      	//... Define for P_DA_Ctrl ....................
                     <      	.DEFINE C_PushPull				0x0000 			// b0, (default) 
                     <      	.DEFINE C_DoubleEnd				0x0001 			// b0
                     <      	.DEFINE	C_DAC_Mode				0x0000 			// b1, (default)
                     <      	.DEFINE C_PWM_Mode				0x0002 			// b1
                     <      	
                     <      	.DEFINE	C_D1_Direct				0x0000 			// DAC1 latch
                     <      	.DEFINE C_D1_LatchA				0x0008 			// 
                     <      	.DEFINE C_D1_LatchB				0x0010 			//
                     <      	.DEFINE C_D1_LatchAB			0x0018 			//
                     <      	
                     <      	.DEFINE	C_D2_Direct				0x0000 			// DAC2 latch
                     <      	.DEFINE C_D2_LatchA				0x0020 			// 
                     <      	.DEFINE C_D2_LatchB				0x0040 			//
                     <      	.DEFINE C_D2_LatchAB			0x00C0 			//
                     <      	
                     <      	//... Define for P_LVD_Ctrl ...................
                     <      	.DEFINE C_LVD24V				0x0000 			// LVD = 2.4V 
                     <      	.DEFINE C_LVD28V				0x0001 			// LVD = 2.8V
                     <      	.DEFINE C_LVD32V				0x0002 			// LVD = 3.2V
                     <      	.DEFINE C_LVD36V				0x0003 			// LVD = 3.6V
                     <      	
                     <      	//////////////////////////////////////////////////
                     <      	// Note: This register will map to the P_INT_Ctrl
                     <      	//	(0x7010), The SACMvxx.lib use this register to
                     <      	//	combine with user's interrupt setting
                     <      	//////////////////////////////////////////////////
                     <      	.EXTERNAL	R_InterruptStatus 
                     <      	//////////////////////////////////////////////////
                     <      	
                     <      	
                     <      	.EXTERNAL 	F_SP_RampUpDAC1
                     <      	.EXTERNAL 	F_SP_RampDnDAC1
                     <      	.EXTERNAL 	F_SP_RampUpDAC2
                     <      	.EXTERNAL 	F_SP_RampDnDAC2
                     <      	
                     <      	.EXTERNAL 	F_SP_InitQueue
                     <      	.EXTERNAL 	F_SP_InitQueue_A2000
                     <      	.EXTERNAL 	F_SP_InitQueue_S480
                     <      	.EXTERNAL 	F_SP_InitQueue_S240
                     <      	.EXTERNAL 	F_SP_InitQueue_MS01
                     <      	.EXTERNAL 	F_SP_InitQueue_DVR
                     <      	
                     <      	.EXTERNAL 	F_SP_ReadQueue
                     <      	.EXTERNAL 	F_SP_ReadQueue_A2000
                     <      	.EXTERNAL 	F_SP_ReadQueue_S480
                     <      	.EXTERNAL 	F_SP_ReadQueue_S240
                     <      	.EXTERNAL 	F_SP_ReadQueue_MS01
                     <      	.EXTERNAL 	F_SP_ReadQueue_DVR
                     <      	
                     <      	.EXTERNAL 	F_SP_WriteQueue
                     <      	.EXTERNAL 	F_SP_WriteQueue_A2000
                     <      	.EXTERNAL 	F_SP_WriteQueue_S480
                     <      	.EXTERNAL 	F_SP_WriteQueue_S240
                     <      	.EXTERNAL 	F_SP_WriteQueue_MS01
                     <      	.EXTERNAL 	F_SP_WriteQueue_DVR
                     <      	
                     <      	.EXTERNAL 	F_SP_TestQueue
                     <      	.EXTERNAL 	F_SP_TestQueue_A2000
                     <      	.EXTERNAL 	F_SP_TestQueue_S480
                     <      	.EXTERNAL 	F_SP_TestQueue_S240
                     <      	.EXTERNAL 	F_SP_TestQueue_MS01
                     <      	.EXTERNAL 	F_SP_TestQueue_DVR
                     <      	
                     <      	.EXTERNAL	F_SP_ReadQueue_NIC		// Read queue with no index change
                     <      	.EXTERNAL	F_SP_ReadQueue_NIC_A2000
                     <      	.EXTERNAL	F_SP_ReadQueue_NIC_S480
                     <      	.EXTERNAL	F_SP_ReadQueue_NIC_S240
                     <      	.EXTERNAL	F_SP_ReadQueue_NIC_MS01
                     <      	.EXTERNAL	F_SP_ReadQueue_NIC_DVR
                     <      	
                     <      	
                     <      	.EXTERNAL	F_SP_SACM_A2000_Init_
                     <      	.EXTERNAL	F_SP_SACM_S480_Init_
                     <      	.EXTERNAL	F_SP_SACM_S240_Init_
                     <      	
                     <      	.EXTERNAL	F_SP_SACM_MS01_Init_
                     <      	.EXTERNAL	F_SP_PlayMode0_
                     <      	.EXTERNAL	F_SP_PlayMode1_
                     <      	.EXTERNAL	F_SP_PlayMode2_
                     <      	.EXTERNAL	F_SP_PlayMode3_
                     <      	
                     <      	.EXTERNAL	F_SP_SACM_DVR_Init_
                     <      	.EXTERNAL 	F_SP_SACM_DVR_Rec_Init_
                     <      	.EXTERNAL 	F_SP_SACM_DVR_Play_Init_
                     <      	
                     <      	.EXTERNAL	F_SP_GetResource
                     <      	
                     <      	//////////////////////////////////////////////////////////////////
                     <      	// Reserve old defintion
                     <      	// Note: Some user who use old library may use the old name
                     <      	//////////////////////////////////////////////////////////////////
                     <      	.EXTERNAL	F_SP_Send_PWM					// Get RAW data 
                     <      	.EXTERNAL	F_SP_Send_DAC1 					// 
                     <      	.EXTERNAL	F_SP_Send_DAC2 					//
                     <      	
                     <      	.EXTERNAL	F_STD_Send_DAC1 				// reserved old
                     <      	.EXTERNAL	F_STD_Send_DAC2 				// reserved old
                     <      	
                     <      	.EXTERNAL 	F_RampUpDAC1					// reserved old
                     <      	.EXTERNAL 	F_RampDnDAC1					// reserved old
                     <      	.EXTERNAL 	F_RampUpDAC2					// reserved old
                     <      	.EXTERNAL  	F_RampDnDAC2					// reserved old
                     <      	///////////////////////////////////////////////////////////////////
                     <      	
                     <      	
                     <      		
                     <      	//========================================================================================        
                     <      	// End of hardware.inc
                     <      	//========================================================================================
0000F126                    	.DATA
0000F126 FE FF FD FF        	  Bit:   .DW 0xfffe,0xfffd,0xfffb,0xfff7,0xffef,0xffdf,0xffbf,0xff7f,0xfeff,0xfdff,0xfbff,0xf7ff,0xefff,0xdfff,0xbfff,0x7fff;//'0''1''2''3''4''5''6''7''8''9'µÄ´úÂë
         FB FF F7 FF
         EF FF DF FF
         BF FF 7F FF
         FF FE FF FD
         FF FB FF F7
         FF EF FF DF
         FF BF FF 7F
0000F136 01 00 02 00        	  One:   .DW 0x0001,0x0002,0x0004,0x0008,0x0010,0x0020,0x0040,0x0080,0x0100,0x0200,0x0400,0x0800,0x1000,0x2000,0x4000,0x8000;
         04 00 08 00
         10 00 20 00
         40 00 80 00
         00 01 00 02
         00 04 00 08
         00 10 00 20
         00 40 00 80
                            	
0000A705                    	.CODE
                            	.public _Set_IOA_Bit
                            	.public Set_IOA_Bit
                            	_Set_IOA_Bit: .PROC
                            	Set_IOA_Bit:
0000A705 88 DA              	    push bp to [sp];  
0000A706 08 0B 03 00        	    bp = sp + 3  
0000A708 01 98              	    r4 = [bp+1]
0000A709 11 93 02 70        	    r1=  [P_IOA_Dir]
0000A70B 0C 05 26 F1        	    r2= r4+Bit
0000A70D C2 94              	    r2= [r2]
0000A70E 02 B3              	    r1= r1&r2
0000A70F 02 96              	    r3 = [bp+2]
0000A710 40 46              	    cmp r3,0
0000A711 06 5E              	    je AZeroDir
0000A712 0C 05 36 F1        	    r2= r4+One
0000A714 C2 94              	    r2= [r2]
0000A715 02 A3              	    r1= r1|r2
0000A716 19 D3 02 70        	    [P_IOA_Dir]=r1
                            	AZeroDir:
0000A718 19 D3 02 70        	    [P_IOA_Dir]=r1 
0000A71A 11 93 03 70        	    r1=  [P_IOA_Attrib]
0000A71C 0C 05 26 F1        	    r2= r4+Bit
0000A71E C2 94              	    r2= [r2]
0000A71F 02 B3              	    r1= r1&r2
0000A720 03 96              	    r3 = [bp+3]
0000A721 40 46              	    cmp r3,0
0000A722 06 5E              	    je AZeroAttrib
0000A723 0C 05 36 F1        	    r2= r4+One
0000A725 C2 94              	    r2= [r2]
0000A726 02 A3              	    r1= r1|r2
0000A727 19 D3 03 70        	    [P_IOA_Attrib]=r1
                            	AZeroAttrib:
0000A729 19 D3 03 70        	    [P_IOA_Attrib]=r1
0000A72B 11 93 01 70        	    r1=  [P_IOA_Buffer]
0000A72D 0C 05 26 F1        	    r2= r4+Bit
0000A72F C2 94              	    r2= [r2]
0000A730 02 B3              	    r1= r1&r2
0000A731 04 96              	    r3 = [bp+4]
0000A732 40 46              	    cmp r3,0
0000A733 06 5E              	    je AZeroBuffer
0000A734 0C 05 36 F1        	    r2= r4+One
0000A736 C2 94              	    r2= [r2]
0000A737 02 A3              	    r1= r1|r2
0000A738 19 D3 01 70        	    [P_IOA_Buffer]=r1
                            	AZeroBuffer:
0000A73A 19 D3 01 70        	    [P_IOA_Buffer]=r1
0000A73C 11 93 01 70        	    r1=  [P_IOA_Buffer]
0000A73E 0C 05 26 F1        	    r2= r4+Bit
0000A740 C2 94              	    r2= [r2]
0000A741 02 B3              	    r1= r1&r2
0000A742 04 96              	    r3 = [bp+4]
0000A743 40 46              	    cmp r3,0
0000A744 06 5E              	    je AZeroData
0000A745 0C 05 36 F1        	    r2= r4+One
0000A747 C2 94              	    r2= [r2]
0000A748 02 A3              	    r1= r1|r2
0000A749 19 D3 00 70        	    [P_IOA_Data]=r1
                            	AZeroData:
0000A74B 19 D3 00 70        	    [P_IOA_Data]=r1
0000A74D 88 98              	    pop bp from [sp]
0000A74E 90 9A              	    retf;
                            	.ENDP
                            	
                            	.public _Set_IOB_Bit
                            	.public Set_IOB_Bit
                            	_Set_IOB_Bit: .PROC
                            	Set_IOB_Bit:
0000A74F 88 DA              	    push bp to [sp];  
0000A750 08 0B 03 00        	    bp = sp + 3 
0000A752 01 98              	    r4 = [bp+1]
0000A753 11 93 07 70        	    r1=  [P_IOB_Dir]
0000A755 0C 05 26 F1        	    r2= r4+Bit
0000A757 C2 94              	    r2= [r2]
0000A758 02 B3              	    r1= r1&r2
0000A759 02 96              	    r3 = [bp+2]
0000A75A 40 46              	    cmp r3,0
0000A75B 06 5E              	    je BZeroDir
0000A75C 0C 05 36 F1        	    r2= r4+One
0000A75E C2 94              	    r2= [r2]
0000A75F 02 A3              	    r1= r1|r2
0000A760 19 D3 07 70        	    [P_IOB_Dir]=r1
                            	BZeroDir:
0000A762 19 D3 07 70        	    [P_IOB_Dir]=r1 
0000A764 11 93 08 70        	    r1=  [P_IOB_Attrib]
0000A766 0C 05 26 F1        	    r2= r4+Bit
0000A768 C2 94              	    r2= [r2]
0000A769 02 B3              	    r1= r1&r2
0000A76A 03 96              	    r3 = [bp+3]
0000A76B 40 46              	    cmp r3,0
0000A76C 06 5E              	    je BZeroAttrib
0000A76D 0C 05 36 F1        	    r2= r4+One
0000A76F C2 94              	    r2= [r2]
0000A770 02 A3              	    r1= r1|r2
0000A771 19 D3 08 70        	    [P_IOB_Attrib]=r1
                            	BZeroAttrib:
0000A773 19 D3 08 70        	    [P_IOB_Attrib]=r1
0000A775 11 93 06 70        	    r1=  [P_IOB_Buffer]
0000A777 0C 05 26 F1        	    r2= r4+Bit
0000A779 C2 94              	    r2= [r2]
0000A77A 02 B3              	    r1= r1&r2
0000A77B 04 96              	    r3 = [bp+4]
0000A77C 40 46              	    cmp r3,0
0000A77D 06 5E              	    je BZeroBuffer
0000A77E 0C 05 36 F1        	    r2= r4+One
0000A780 C2 94              	    r2= [r2]
0000A781 02 A3              	    r1= r1|r2
0000A782 19 D3 06 70        	    [P_IOB_Buffer]=r1
                            	BZeroBuffer:
0000A784 19 D3 06 70        	    [P_IOB_Buffer]=r1
0000A786 11 93 06 70        	    r1=  [P_IOB_Buffer]
0000A788 0C 05 26 F1        	    r2= r4+Bit
0000A78A C2 94              	    r2= [r2]
0000A78B 02 B3              	    r1= r1&r2
0000A78C 04 96              	    r3 = [bp+4]
0000A78D 40 46              	    cmp r3,0
0000A78E 06 5E              	    je BZeroData
0000A78F 0C 05 36 F1        	    r2= r4+One
0000A791 C2 94              	    r2= [r2]
0000A792 02 A3              	    r1= r1|r2
0000A793 19 D3 05 70        	    [P_IOB_Data]=r1
                            	BZeroData:
0000A795 19 D3 05 70        	    [P_IOB_Data]=r1
0000A797 88 98              	    pop bp from [sp]
0000A798 90 9A              	    retf;
                            	.ENDP
                            	
                            	.PUBLIC _Get_IOA_Bit
                            	.PUBLIC Get_IOA_Bit
                            	_Get_IOA_Bit:.PROC
                            	Get_IOA_Bit:
0000A799 88 DA              	    push bp to [sp];  
0000A79A 08 0B 03 00        	    bp = sp + 3 
0000A79C 02 96              	    r3 = [bp+2]
0000A79D 40 46              	    cmp r3,0
0000A79E 0F 5E              	    je  AGetBufferBit
0000A79F 01 98              	    r4 = [bp+1]
0000A7A0 11 93 00 70        	    r1=  [P_IOA_Data]
0000A7A2 0C 05 26 F1        	    r2= r4+Bit
0000A7A4 C2 94              	    r2= [r2]
0000A7A5 02 A3              	    r1= r1|r2
0000A7A6 02 43              	    cmp r1,r2
0000A7A7 03 5E              	    je AReturnData0
0000A7A8 41 92              	    r1=1
0000A7A9 88 98              	    pop bp from [sp]
0000A7AA 90 9A              	    retf;
                            	AReturnData0:
0000A7AB 40 92              	    r1=0 
0000A7AC 88 98              	    pop bp from [sp]
0000A7AD 90 9A              	    retf;
                            	AGetBufferBit:
0000A7AE 01 98              	    r4 = [bp+1]
0000A7AF 11 93 01 70        	    r1=  [P_IOA_Buffer]
0000A7B1 0C 05 26 F1        	    r2= r4+Bit
0000A7B3 C2 94              	    r2= [r2]
0000A7B4 02 A3              	    r1= r1|r2
0000A7B5 02 43              	    cmp r1,r2
0000A7B6 03 5E              	    je AReturnBuffer0
0000A7B7 41 92              	    r1=1
0000A7B8 88 98              	    pop bp from [sp]
0000A7B9 90 9A              	    retf;
                            	AReturnBuffer0:
0000A7BA 40 92              	    r1=0 
0000A7BB 88 98              	    pop bp from [sp]
0000A7BC 90 9A              	    retf;  
                            	    .ENDP
                            	    
                            	.PUBLIC _Get_IOB_Bit
                            	.PUBLIC Get_IOB_Bit
                            	_Get_IOB_Bit:.PROC
                            	Get_IOB_Bit:
0000A7BD 88 DA              	    push bp to [sp];  
0000A7BE 08 0B 03 00        	    bp = sp + 3 
0000A7C0 02 96              	    r3 = [bp+2]
0000A7C1 40 46              	    cmp r3,0
0000A7C2 0F 5E              	    je  BGetBufferBit
0000A7C3 01 98              	    r4 = [bp+1]
0000A7C4 11 93 05 70        	    r1=  [P_IOB_Data]
0000A7C6 0C 05 26 F1        	    r2= r4+Bit
0000A7C8 C2 94              	    r2= [r2]
0000A7C9 02 A3              	    r1= r1|r2
0000A7CA 02 43              	    cmp r1,r2
0000A7CB 03 5E              	    je BReturnData0
0000A7CC 41 92              	    r1=1
0000A7CD 88 98              	    pop bp from [sp]
0000A7CE 90 9A              	    retf;
                            	   
                            	BReturnData0:
0000A7CF 40 92              	    r1=0 
0000A7D0 88 98              	    pop bp from [sp]
0000A7D1 90 9A              	    retf;
                            	BGetBufferBit:
0000A7D2 01 98              	    r4 = [bp+1]
0000A7D3 11 93 06 70        	    r1=  [P_IOB_Buffer]
0000A7D5 0C 05 26 F1        	    r2= r4+Bit
0000A7D7 C2 94              	    r2= [r2]
0000A7D8 02 A3              	    r1= r1|r2
0000A7D9 02 43              	    cmp r1,r2
0000A7DA 03 5E              	    je BReturnBuffer0
0000A7DB 41 92              	    r1=1
0000A7DC 88 98              	    pop bp from [sp]
0000A7DD 90 9A              	    retf;
                            	BReturnBuffer0:
0000A7DE 40 92              	    r1=0 
0000A7DF 88 98              	    pop bp from [sp] 
0000A7E0 90 9A              	    retf;
                            	    .ENDP
                            	    
                            	.public _Set_IOA0_Dir0
                            	.public Set_IOA0_Dir0
                            	_Set_IOA0_Dir0: .PROC
                            	Set_IOA0_Dir0:
0000A7E1 A8 DA              	    push r1,r5 to [sp];
0000A7E2 11 93 02 70        	    r1=  [P_IOA_Dir]
0000A7E4 0A 95 FE FF        	    r2= 0xfffe
0000A7E6 02 B3              	    r1= r1&r2
0000A7E7 19 D3 02 70        	    [P_IOA_Dir]=r1 
0000A7E9 A8 90              	    pop r1,r5 from [sp]
0000A7EA 90 9A              	    retf;
                            	    .ENDP
                            	.public _Set_IOA0_Dir1
                            	.public Set_IOA0_Dir1
                            	_Set_IOA0_Dir1: .PROC
                            	Set_IOA0_Dir1:
0000A7EB A8 DA              	    push r1,r5 to [sp];
0000A7EC 11 93 02 70        	    r1=  [P_IOA_Dir]
0000A7EE 0A 95 FE FF        	    r2= 0xfffe
0000A7F0 02 B3              	    r1= r1&r2
0000A7F1 41 94              	    r2=  0x0001
0000A7F2 02 A3              	    r1=r1|r2
0000A7F3 19 D3 02 70        	    [P_IOA_Dir]=r1 
0000A7F5 A8 90              	    pop r1,r5 from [sp]
0000A7F6 90 9A              	    retf;
                            	    .ENDP
                            	.public _Set_IOA1_Dir0
                            	.public Set_IOA1_Dir0
                            	_Set_IOA1_Dir0: .PROC
                            	Set_IOA1_Dir0:
0000A7F7 A8 DA              	    push r1,r5 to [sp];
0000A7F8 11 93 02 70        	    r1=  [P_IOA_Dir]
0000A7FA 0A 95 FD FF        	    r2= 0xfffd
0000A7FC 02 B3              	    r1= r1&r2
0000A7FD 19 D3 02 70        	    [P_IOA_Dir]=r1 
0000A7FF A8 90              	    pop r1,r5 from [sp]
0000A800 90 9A              	    retf;
                            	    .ENDP
                            	.public _Set_IOA1_Dir1
                            	.public Set_IOA1_Dir1
                            	_Set_IOA1_Dir1: .PROC
                            	Set_IOA1_Dir1:
0000A801 A8 DA              	    push r1,r5 to [sp];
0000A802 11 93 02 70        	    r1=  [P_IOA_Dir]
0000A804 0A 95 FD FF        	    r2= 0xfffd
0000A806 02 B3              	    r1= r1&r2
0000A807 42 94              	    r2=  0x0002
0000A808 02 A3              	    r1=r1|r2
0000A809 19 D3 02 70        	    [P_IOA_Dir]=r1 
0000A80B A8 90              	    pop r1,r5 from [sp]
0000A80C 90 9A              	    retf;
                            	    .ENDP
                            	.public _Set_IOA2_Dir0
                            	.public Set_IOA2_Dir0
                            	_Set_IOA2_Dir0: .PROC
                            	Set_IOA2_Dir0:
0000A80D A8 DA              	    push r1,r5 to [sp];
0000A80E 11 93 02 70        	    r1=  [P_IOA_Dir]
0000A810 0A 95 FB FF        	    r2= 0xfffb
0000A812 02 B3              	    r1= r1&r2
0000A813 19 D3 02 70        	    [P_IOA_Dir]=r1 
0000A815 A8 90              	    pop r1,r5 from [sp]
0000A816 90 9A              	    retf;
                            	    .ENDP
                            	.public _Set_IOA2_Dir1
                            	.public Set_IOA2_Dir1
                            	_Set_IOA2_Dir1: .PROC
                            	Set_IOA2_Dir1:
0000A817 A8 DA              	    push r1,r5 to [sp];
0000A818 11 93 02 70        	    r1=  [P_IOA_Dir]
0000A81A 0A 95 FB FF        	    r2= 0xfffb
0000A81C 02 B3              	    r1= r1&r2
0000A81D 44 94              	    r2=  0x0004
0000A81E 02 A3              	    r1=r1|r2
0000A81F 19 D3 02 70        	    [P_IOA_Dir]=r1 
0000A821 A8 90              	    pop r1,r5 from [sp]
0000A822 90 9A              	    retf;
                            	    .ENDP
                            	.public _Set_IOA3_Dir0
                            	.public Set_IOA3_Dir0
                            	_Set_IOA3_Dir0: .PROC
                            	Set_IOA3_Dir0:
0000A823 A8 DA              	    push r1,r5 to [sp];
0000A824 11 93 02 70        	    r1=  [P_IOA_Dir]
0000A826 0A 95 F7 FF        	    r2= 0xfff7
0000A828 02 B3              	    r1= r1&r2
0000A829 19 D3 02 70        	    [P_IOA_Dir]=r1 
0000A82B A8 90              	    pop r1,r5 from [sp]
0000A82C 90 9A              	    retf;
                            	    .ENDP
                            	.public _Set_IOA3_Dir1
                            	.public Set_IOA3_Dir1
                            	_Set_IOA3_Dir1: .PROC
                            	Set_IOA3_Dir1:
0000A82D A8 DA              	    push r1,r5 to [sp];
0000A82E 11 93 02 70        	    r1=  [P_IOA_Dir]
0000A830 0A 95 F7 FF        	    r2= 0xfff7
0000A832 02 B3              	    r1= r1&r2
0000A833 48 94              	    r2=  0x0008
0000A834 02 A3              	    r1=r1|r2
0000A835 19 D3 02 70        	    [P_IOA_Dir]=r1 
0000A837 A8 90              	    pop r1,r5 from [sp]
0000A838 90 9A              	    retf;
                            	    .ENDP
                            	.public _Set_IOA4_Dir0
                            	.public Set_IOA4_Dir0
                            	_Set_IOA4_Dir0: .PROC
                            	Set_IOA4_Dir0:
0000A839 A8 DA              	    push r1,r5 to [sp];
0000A83A 11 93 02 70        	    r1=  [P_IOA_Dir]
0000A83C 0A 95 EF FF        	    r2= 0xffef
0000A83E 02 B3              	    r1= r1&r2
0000A83F 19 D3 02 70        	    [P_IOA_Dir]=r1 
0000A841 A8 90              	    pop r1,r5 from [sp]
0000A842 90 9A              	    retf;
                            	    .ENDP
                            	.public _Set_IOA4_Dir1
                            	.public Set_IOA4_Dir1
                            	_Set_IOA4_Dir1: .PROC
                            	Set_IOA4_Dir1:
0000A843 A8 DA              	    push r1,r5 to [sp];
0000A844 11 93 02 70        	    r1=  [P_IOA_Dir]
0000A846 0A 95 EF FF        	    r2= 0xffef
0000A848 02 B3              	    r1= r1&r2
0000A849 50 94              	    r2=  0x0010
0000A84A 02 A3              	    r1=r1|r2
0000A84B 19 D3 02 70        	    [P_IOA_Dir]=r1 
0000A84D A8 90              	    pop r1,r5 from [sp]
0000A84E 90 9A              	    retf;
                            	    .ENDP
                            	.public _Set_IOA5_Dir0
                            	.public Set_IOA5_Dir0
                            	_Set_IOA5_Dir0: .PROC
                            	Set_IOA5_Dir0:
0000A84F A8 DA              	    push r1,r5 to [sp];
0000A850 11 93 02 70        	    r1=  [P_IOA_Dir]
0000A852 0A 95 DF FF        	    r2= 0xffdf
0000A854 02 B3              	    r1= r1&r2
0000A855 19 D3 02 70        	    [P_IOA_Dir]=r1 
0000A857 A8 90              	    pop r1,r5 from [sp]
0000A858 90 9A              	    retf;
                            	    .ENDP
                            	.public _Set_IOA5_Dir1
                            	.public Set_IOA5_Dir1
                            	_Set_IOA5_Dir1: .PROC
                            	Set_IOA5_Dir1:
0000A859 A8 DA              	    push r1,r5 to [sp];
0000A85A 11 93 02 70        	    r1=  [P_IOA_Dir]
0000A85C 0A 95 DF FF        	    r2= 0xffdf
0000A85E 02 B3              	    r1= r1&r2
0000A85F 60 94              	    r2=  0x0020
0000A860 02 A3              	    r1=r1|r2
0000A861 19 D3 02 70        	    [P_IOA_Dir]=r1 
0000A863 A8 90              	    pop r1,r5 from [sp]
0000A864 90 9A              	    retf;
                            	    .ENDP
                            	.public _Set_IOA6_Dir0
                            	.public Set_IOA6_Dir0
                            	_Set_IOA6_Dir0: .PROC
                            	Set_IOA6_Dir0:
0000A865 A8 DA              	    push r1,r5 to [sp];
0000A866 11 93 02 70        	    r1=  [P_IOA_Dir]
0000A868 0A 95 BF FF        	    r2= 0xffbf
0000A86A 02 B3              	    r1= r1&r2
0000A86B 19 D3 02 70        	    [P_IOA_Dir]=r1 
0000A86D A8 90              	    pop r1,r5 from [sp]
0000A86E 90 9A              	    retf;
                            	    .ENDP
                            	.public _Set_IOA6_Dir1
                            	.public Set_IOA6_Dir1
                            	_Set_IOA6_Dir1: .PROC
                            	Set_IOA6_Dir1:
0000A86F A8 DA              	    push r1,r5 to [sp];
0000A870 11 93 02 70        	    r1=  [P_IOA_Dir]
0000A872 0A 95 BF FF        	    r2= 0xffbf
0000A874 02 B3              	    r1= r1&r2
0000A875 0A 95 40 00        	    r2=  0x0040
0000A877 02 A3              	    r1=r1|r2
0000A878 19 D3 02 70        	    [P_IOA_Dir]=r1 
0000A87A A8 90              	    pop r1,r5 from [sp]
0000A87B 90 9A              	    retf;
                            	    .ENDP
                            	.public _Set_IOA7_Dir0
                            	.public Set_IOA7_Dir0
                            	_Set_IOA7_Dir0: .PROC
                            	Set_IOA7_Dir0:
0000A87C A8 DA              	    push r1,r5 to [sp];
0000A87D 11 93 02 70        	    r1=  [P_IOA_Dir]
0000A87F 0A 95 7F FF        	    r2= 0xff7f
0000A881 02 B3              	    r1= r1&r2
0000A882 19 D3 02 70        	    [P_IOA_Dir]=r1 
0000A884 A8 90              	    pop r1,r5 from [sp]
0000A885 90 9A              	    retf;
                            	    .ENDP
                            	.public _Set_IOA7_Dir1
                            	.public Set_IOA7_Dir1
                            	_Set_IOA7_Dir1: .PROC
                            	Set_IOA7_Dir1:
0000A886 A8 DA              	    push r1,r5 to [sp];
0000A887 11 93 02 70        	    r1=  [P_IOA_Dir]
0000A889 0A 95 7F FF        	    r2= 0xff7f
0000A88B 02 B3              	    r1= r1&r2
0000A88C 0A 95 80 00        	    r2=  0x0080
0000A88E 02 A3              	    r1=r1|r2
0000A88F 19 D3 02 70        	    [P_IOA_Dir]=r1 
0000A891 A8 90              	    pop r1,r5 from [sp]
0000A892 90 9A              	    retf;
                            	    .ENDP
                            	.public _Set_IOA8_Dir0
                            	.public Set_IOA8_Dir0
                            	_Set_IOA8_Dir0: .PROC
                            	Set_IOA8_Dir0:
0000A893 A8 DA              	    push r1,r5 to [sp];
0000A894 11 93 02 70        	    r1=  [P_IOA_Dir]
0000A896 0A 95 FF FE        	    r2= 0xfeff
0000A898 02 B3              	    r1= r1&r2
0000A899 19 D3 02 70        	    [P_IOA_Dir]=r1 
0000A89B A8 90              	    pop r1,r5 from [sp]
0000A89C 90 9A              	    retf;
                            	    .ENDP
                            	.public _Set_IOA8_Dir1
                            	.public Set_IOA8_Dir1
                            	_Set_IOA8_Dir1: .PROC
                            	Set_IOA8_Dir1:
0000A89D A8 DA              	    push r1,r5 to [sp];
0000A89E 11 93 02 70        	    r1=  [P_IOA_Dir]
0000A8A0 0A 95 FF FE        	    r2= 0xfeff
0000A8A2 02 B3              	    r1= r1&r2
0000A8A3 0A 95 00 01        	    r2=  0x0100
0000A8A5 02 A3              	    r1=r1|r2
0000A8A6 19 D3 02 70        	    [P_IOA_Dir]=r1 
0000A8A8 A8 90              	    pop r1,r5 from [sp]
0000A8A9 90 9A              	    retf;
                            	    .ENDP
                            	.public _Set_IOA9_Dir0
                            	.public Set_IOA9_Dir0
                            	_Set_IOA9_Dir0: .PROC
                            	Set_IOA9_Dir0:
0000A8AA A8 DA              	    push r1,r5 to [sp];
0000A8AB 11 93 02 70        	    r1=  [P_IOA_Dir]
0000A8AD 0A 95 FF FD        	    r2= 0xfdff
0000A8AF 02 B3              	    r1= r1&r2
0000A8B0 19 D3 02 70        	    [P_IOA_Dir]=r1 
0000A8B2 A8 90              	    pop r1,r5 from [sp]
0000A8B3 90 9A              	    retf;
                            	    .ENDP
                            	.public _Set_IOA9_Dir1
                            	.public Set_IOA9_Dir1
                            	_Set_IOA9_Dir1: .PROC
                            	Set_IOA9_Dir1:
0000A8B4 A8 DA              	    push r1,r5 to [sp];
0000A8B5 11 93 02 70        	    r1=  [P_IOA_Dir]
0000A8B7 0A 95 FF FD        	    r2= 0xfdff
0000A8B9 02 B3              	    r1= r1&r2
0000A8BA 0A 95 00 02        	    r2=  0x0200
0000A8BC 02 A3              	    r1=r1|r2
0000A8BD 19 D3 02 70        	    [P_IOA_Dir]=r1 
0000A8BF A8 90              	    pop r1,r5 from [sp]
0000A8C0 90 9A              	    retf;
                            	    .ENDP
                            	.public _Set_IOA10_Dir0
                            	.public Set_IOA10_Dir0
                            	_Set_IOA10_Dir0: .PROC
                            	Set_IOA10_Dir0:
0000A8C1 A8 DA              	    push r1,r5 to [sp];
0000A8C2 11 93 02 70        	    r1=  [P_IOA_Dir]
0000A8C4 0A 95 FF FB        	    r2= 0xfbff
0000A8C6 02 B3              	    r1= r1&r2
0000A8C7 19 D3 02 70        	    [P_IOA_Dir]=r1 
0000A8C9 A8 90              	    pop r1,r5 from [sp]
0000A8CA 90 9A              	    retf;
                            	    .ENDP
                            	.public _Set_IOA10_Dir1
                            	.public Set_IOA10_Dir1
                            	_Set_IOA10_Dir1: .PROC
                            	Set_IOA10_Dir1:
0000A8CB A8 DA              	    push r1,r5 to [sp];
0000A8CC 11 93 02 70        	    r1=  [P_IOA_Dir]
0000A8CE 0A 95 FF FB        	    r2= 0xfbff
0000A8D0 02 B3              	    r1= r1&r2
0000A8D1 0A 95 00 04        	    r2=  0x0400
0000A8D3 02 A3              	    r1=r1|r2
0000A8D4 19 D3 02 70        	    [P_IOA_Dir]=r1 
0000A8D6 A8 90              	    pop r1,r5 from [sp]
0000A8D7 90 9A              	    retf;
                            	    .ENDP
                            	.public _Set_IOA11_Dir0
                            	.public Set_IOA11_Dir0
                            	_Set_IOA11_Dir0: .PROC
                            	Set_IOA11_Dir0:
0000A8D8 A8 DA              	    push r1,r5 to [sp];
0000A8D9 11 93 02 70        	    r1=  [P_IOA_Dir]
0000A8DB 0A 95 FF F7        	    r2= 0xf7ff
0000A8DD 02 B3              	    r1= r1&r2
0000A8DE 19 D3 02 70        	    [P_IOA_Dir]=r1 
0000A8E0 A8 90              	    pop r1,r5 from [sp]
0000A8E1 90 9A              	    retf;
                            	    .ENDP
                            	.public _Set_IOA11_Dir1
                            	.public Set_IOA11_Dir1
                            	_Set_IOA11_Dir1: .PROC
                            	Set_IOA11_Dir1:
0000A8E2 A8 DA              	    push r1,r5 to [sp];
0000A8E3 11 93 02 70        	    r1=  [P_IOA_Dir]
0000A8E5 0A 95 FF F7        	    r2= 0xf7ff
0000A8E7 02 B3              	    r1= r1&r2
0000A8E8 0A 95 00 08        	    r2=  0x0800
0000A8EA 02 A3              	    r1=r1|r2
0000A8EB 19 D3 02 70        	    [P_IOA_Dir]=r1 
0000A8ED A8 90              	    pop r1,r5 from [sp]
0000A8EE 90 9A              	    retf;
                            	    .ENDP
                            	.public _Set_IOA12_Dir0
                            	.public Set_IOA12_Dir0
                            	_Set_IOA12_Dir0: .PROC
                            	Set_IOA12_Dir0:
0000A8EF A8 DA              	    push r1,r5 to [sp];
0000A8F0 11 93 02 70        	    r1=  [P_IOA_Dir]
0000A8F2 0A 95 FF EF        	    r2= 0xefff
0000A8F4 02 B3              	    r1= r1&r2
0000A8F5 19 D3 02 70        	    [P_IOA_Dir]=r1 
0000A8F7 A8 90              	    pop r1,r5 from [sp]
0000A8F8 90 9A              	    retf;
                            	    .ENDP
                            	.public _Set_IOA12_Dir1
                            	.public Set_IOA12_Dir1
                            	_Set_IOA12_Dir1: .PROC
                            	Set_IOA12_Dir1:
0000A8F9 A8 DA              	    push r1,r5 to [sp];
0000A8FA 11 93 02 70        	    r1=  [P_IOA_Dir]
0000A8FC 0A 95 FF EF        	    r2= 0xefff
0000A8FE 02 B3              	    r1= r1&r2
0000A8FF 0A 95 00 10        	    r2=  0x1000
0000A901 02 A3              	    r1=r1|r2
0000A902 19 D3 02 70        	    [P_IOA_Dir]=r1 
0000A904 A8 90              	    pop r1,r5 from [sp]
0000A905 90 9A              	    retf;
                            	    .ENDP
                            	.public _Set_IOA13_Dir0
                            	.public Set_IOA13_Dir0
                            	_Set_IOA13_Dir0: .PROC
                            	Set_IOA13_Dir0:
0000A906 A8 DA              	    push r1,r5 to [sp];
0000A907 11 93 02 70        	    r1=  [P_IOA_Dir]
0000A909 0A 95 FF DF        	    r2= 0xdfff
0000A90B 02 B3              	    r1= r1&r2
0000A90C 19 D3 02 70        	    [P_IOA_Dir]=r1 
0000A90E A8 90              	    pop r1,r5 from [sp]
0000A90F 90 9A              	    retf;
                            	    .ENDP
                            	.public _Set_IOA13_Dir1
                            	.public Set_IOA13_Dir1
                            	_Set_IOA13_Dir1: .PROC
                            	Set_IOA13_Dir1:
0000A910 A8 DA              	    push r1,r5 to [sp];
0000A911 11 93 02 70        	    r1=  [P_IOA_Dir]
0000A913 0A 95 FF DF        	    r2= 0xdfff
0000A915 02 B3              	    r1= r1&r2
0000A916 0A 95 00 20        	    r2=  0x2000
0000A918 02 A3              	    r1=r1|r2
0000A919 19 D3 02 70        	    [P_IOA_Dir]=r1 
0000A91B A8 90              	    pop r1,r5 from [sp]
0000A91C 90 9A              	    retf;
                            	    .ENDP
                            	.public _Set_IOA14_Dir0
                            	.public Set_IOA14_Dir0
                            	_Set_IOA14_Dir0: .PROC
                            	Set_IOA14_Dir0:
0000A91D A8 DA              	    push r1,r5 to [sp];
0000A91E 11 93 02 70        	    r1=  [P_IOA_Dir]
0000A920 0A 95 FF BF        	    r2= 0xbfff
0000A922 02 B3              	    r1= r1&r2
0000A923 19 D3 02 70        	    [P_IOA_Dir]=r1 
0000A925 A8 90              	    pop r1,r5 from [sp]
0000A926 90 9A              	    retf;
                            	    .ENDP
                            	.public _Set_IOA14_Dir1
                            	.public Set_IOA14_Dir1
                            	_Set_IOA14_Dir1: .PROC
                            	Set_IOA14_Dir1:
0000A927 A8 DA              	    push r1,r5 to [sp];
0000A928 11 93 02 70        	    r1=  [P_IOA_Dir]
0000A92A 0A 95 FF BF        	    r2= 0xbfff
0000A92C 02 B3              	    r1= r1&r2
0000A92D 0A 95 00 40        	    r2=  0x4000
0000A92F 02 A3              	    r1=r1|r2
0000A930 19 D3 02 70        	    [P_IOA_Dir]=r1 
0000A932 A8 90              	    pop r1,r5 from [sp]
0000A933 90 9A              	    retf;
                            	    .ENDP
                            	.public _Set_IOA15_Dir0
                            	.public Set_IOA15_Dir0
                            	_Set_IOA15_Dir0: .PROC
                            	Set_IOA15_Dir0:
0000A934 A8 DA              	    push r1,r5 to [sp];
0000A935 11 93 02 70        	    r1=  [P_IOA_Dir]
0000A937 0A 95 FF 7F        	    r2= 0x7fff
0000A939 02 B3              	    r1= r1&r2
0000A93A 19 D3 02 70        	    [P_IOA_Dir]=r1 
0000A93C A8 90              	    pop r1,r5 from [sp]
0000A93D 90 9A              	    retf;
                            	    .ENDP
                            	.public _Set_IOA15_Dir1
                            	.public Set_IOA15_Dir1
                            	_Set_IOA15_Dir1: .PROC
                            	Set_IOA15_Dir1:
0000A93E A8 DA              	    push r1,r5 to [sp];
0000A93F 11 93 02 70        	    r1=  [P_IOA_Dir]
0000A941 0A 95 FF 7F        	    r2= 0x7fff
0000A943 02 B3              	    r1= r1&r2
0000A944 0A 95 00 80        	    r2=  0x8000
0000A946 02 A3              	    r1=r1|r2
0000A947 19 D3 02 70        	    [P_IOA_Dir]=r1 
0000A949 A8 90              	    pop r1,r5 from [sp]
0000A94A 90 9A              	    retf;
                            	    .ENDP
                            	.public _Set_IOA0_Attrib0
                            	.public Set_IOA0_Attrib0
                            	_Set_IOA0_Attrib0: .PROC
                            	Set_IOA0_Attrib0:
0000A94B A8 DA              	    push r1,r5 to [sp];
0000A94C 11 93 03 70        	    r1=  [P_IOA_Attrib]
0000A94E 0A 95 FE FF        	    r2= 0xfffe
0000A950 02 B3              	    r1= r1&r2
0000A951 19 D3 03 70        	    [P_IOA_Attrib]=r1 
0000A953 A8 90              	    pop r1,r5 from [sp]
0000A954 90 9A              	    retf;
                            	    .ENDP
                            	.public _Set_IOA0_Attrib1
                            	.public Set_IOA0_Attrib1
                            	_Set_IOA0_Attrib1: .PROC
                            	Set_IOA0_Attrib1:
0000A955 A8 DA              	    push r1,r5 to [sp];
0000A956 11 93 03 70        	    r1=  [P_IOA_Attrib]
0000A958 0A 95 FE FF        	    r2= 0xfffe
0000A95A 02 B3              	    r1= r1&r2
0000A95B 41 94              	    r2=  0x0001
0000A95C 02 A3              	    r1=r1|r2
0000A95D 19 D3 03 70        	    [P_IOA_Attrib]=r1 
0000A95F A8 90              	    pop r1,r5 from [sp]
0000A960 90 9A              	    retf;
                            	    .ENDP
                            	.public _Set_IOA1_Attrib0
                            	.public Set_IOA1_Attrib0
                            	_Set_IOA1_Attrib0: .PROC
                            	Set_IOA1_Attrib0:
0000A961 A8 DA              	    push r1,r5 to [sp];
0000A962 11 93 03 70        	    r1=  [P_IOA_Attrib]
0000A964 0A 95 FD FF        	    r2= 0xfffd
0000A966 02 B3              	    r1= r1&r2
0000A967 19 D3 03 70        	    [P_IOA_Attrib]=r1 
0000A969 A8 90              	    pop r1,r5 from [sp]
0000A96A 90 9A              	    retf;
                            	    .ENDP
                            	.public _Set_IOA1_Attrib1
                            	.public Set_IOA1_Attrib1
                            	_Set_IOA1_Attrib1: .PROC
                            	Set_IOA1_Attrib1:
0000A96B A8 DA              	    push r1,r5 to [sp];
0000A96C 11 93 03 70        	    r1=  [P_IOA_Attrib]
0000A96E 0A 95 FD FF        	    r2= 0xfffd
0000A970 02 B3              	    r1= r1&r2
0000A971 42 94              	    r2=  0x0002
0000A972 02 A3              	    r1=r1|r2
0000A973 19 D3 03 70        	    [P_IOA_Attrib]=r1 
0000A975 A8 90              	    pop r1,r5 from [sp]
0000A976 90 9A              	    retf;
                            	    .ENDP
                            	.public _Set_IOA2_Attrib0
                            	.public Set_IOA2_Attrib0
                            	_Set_IOA2_Attrib0: .PROC
                            	Set_IOA2_Attrib0:
0000A977 A8 DA              	    push r1,r5 to [sp];
0000A978 11 93 03 70        	    r1=  [P_IOA_Attrib]
0000A97A 0A 95 FB FF        	    r2= 0xfffb
0000A97C 02 B3              	    r1= r1&r2
0000A97D 19 D3 03 70        	    [P_IOA_Attrib]=r1 
0000A97F A8 90              	    pop r1,r5 from [sp]
0000A980 90 9A              	    retf;
                            	    .ENDP
                            	.public _Set_IOA2_Attrib1
                            	.public Set_IOA2_Attrib1
                            	_Set_IOA2_Attrib1: .PROC
                            	Set_IOA2_Attrib1:
0000A981 A8 DA              	    push r1,r5 to [sp];
0000A982 11 93 03 70        	    r1=  [P_IOA_Attrib]
0000A984 0A 95 FB FF        	    r2= 0xfffb
0000A986 02 B3              	    r1= r1&r2
0000A987 44 94              	    r2=  0x0004
0000A988 02 A3              	    r1=r1|r2
0000A989 19 D3 03 70        	    [P_IOA_Attrib]=r1 
0000A98B A8 90              	    pop r1,r5 from [sp]
0000A98C 90 9A              	    retf;
                            	    .ENDP
                            	.public _Set_IOA3_Attrib0
                            	.public Set_IOA3_Attrib0
                            	_Set_IOA3_Attrib0: .PROC
                            	Set_IOA3_Attrib0:
0000A98D A8 DA              	    push r1,r5 to [sp];
0000A98E 11 93 03 70        	    r1=  [P_IOA_Attrib]
0000A990 0A 95 F7 FF        	    r2= 0xfff7
0000A992 02 B3              	    r1= r1&r2
0000A993 19 D3 03 70        	    [P_IOA_Attrib]=r1 
0000A995 A8 90              	    pop r1,r5 from [sp]
0000A996 90 9A              	    retf;
                            	    .ENDP
                            	.public _Set_IOA3_Attrib1
                            	.public Set_IOA3_Attrib1
                            	_Set_IOA3_Attrib1: .PROC
                            	Set_IOA3_Attrib1:
0000A997 A8 DA              	    push r1,r5 to [sp];
0000A998 11 93 03 70        	    r1=  [P_IOA_Attrib]
0000A99A 0A 95 F7 FF        	    r2= 0xfff7
0000A99C 02 B3              	    r1= r1&r2
0000A99D 48 94              	    r2=  0x0008
0000A99E 02 A3              	    r1=r1|r2
0000A99F 19 D3 03 70        	    [P_IOA_Attrib]=r1 
0000A9A1 A8 90              	    pop r1,r5 from [sp]
0000A9A2 90 9A              	    retf;
                            	    .ENDP
                            	.public _Set_IOA4_Attrib0
                            	.public Set_IOA4_Attrib0
                            	_Set_IOA4_Attrib0: .PROC
                            	Set_IOA4_Attrib0:
0000A9A3 A8 DA              	    push r1,r5 to [sp];
0000A9A4 11 93 03 70        	    r1=  [P_IOA_Attrib]
0000A9A6 0A 95 EF FF        	    r2= 0xffef
0000A9A8 02 B3              	    r1= r1&r2
0000A9A9 19 D3 03 70        	    [P_IOA_Attrib]=r1 
0000A9AB A8 90              	    pop r1,r5 from [sp]
0000A9AC 90 9A              	    retf;
                            	    .ENDP
                            	.public _Set_IOA4_Attrib1
                            	.public Set_IOA4_Attrib1
                            	_Set_IOA4_Attrib1: .PROC
                            	Set_IOA4_Attrib1:
0000A9AD A8 DA              	    push r1,r5 to [sp];
0000A9AE 11 93 03 70        	    r1=  [P_IOA_Attrib]
0000A9B0 0A 95 EF FF        	    r2= 0xffef
0000A9B2 02 B3              	    r1= r1&r2
0000A9B3 50 94              	    r2=  0x0010
0000A9B4 02 A3              	    r1=r1|r2
0000A9B5 19 D3 03 70        	    [P_IOA_Attrib]=r1 
0000A9B7 A8 90              	    pop r1,r5 from [sp]
0000A9B8 90 9A              	    retf;
                            	    .ENDP
                            	.public _Set_IOA5_Attrib0
                            	.public Set_IOA5_Attrib0
                            	_Set_IOA5_Attrib0: .PROC
                            	Set_IOA5_Attrib0:
0000A9B9 A8 DA              	    push r1,r5 to [sp];
0000A9BA 11 93 03 70        	    r1=  [P_IOA_Attrib]
0000A9BC 0A 95 DF FF        	    r2= 0xffdf
0000A9BE 02 B3              	    r1= r1&r2
0000A9BF 19 D3 03 70        	    [P_IOA_Attrib]=r1 
0000A9C1 A8 90              	    pop r1,r5 from [sp]
0000A9C2 90 9A              	    retf;
                            	    .ENDP
                            	.public _Set_IOA5_Attrib1
                            	.public Set_IOA5_Attrib1
                            	_Set_IOA5_Attrib1: .PROC
                            	Set_IOA5_Attrib1:
0000A9C3 A8 DA              	    push r1,r5 to [sp];
0000A9C4 11 93 03 70        	    r1=  [P_IOA_Attrib]
0000A9C6 0A 95 DF FF        	    r2= 0xffdf
0000A9C8 02 B3              	    r1= r1&r2
0000A9C9 60 94              	    r2=  0x0020
0000A9CA 02 A3              	    r1=r1|r2
0000A9CB 19 D3 03 70        	    [P_IOA_Attrib]=r1 
0000A9CD A8 90              	    pop r1,r5 from [sp]
0000A9CE 90 9A              	    retf;
                            	    .ENDP
                            	.public _Set_IOA6_Attrib0
                            	.public Set_IOA6_Attrib0
                            	_Set_IOA6_Attrib0: .PROC
                            	Set_IOA6_Attrib0:
0000A9CF A8 DA              	    push r1,r5 to [sp];
0000A9D0 11 93 03 70        	    r1=  [P_IOA_Attrib]
0000A9D2 0A 95 BF FF        	    r2= 0xffbf
0000A9D4 02 B3              	    r1= r1&r2
0000A9D5 19 D3 03 70        	    [P_IOA_Attrib]=r1 
0000A9D7 A8 90              	    pop r1,r5 from [sp]
0000A9D8 90 9A              	    retf;
                            	    .ENDP
                            	.public _Set_IOA6_Attrib1
                            	.public Set_IOA6_Attrib1
                            	_Set_IOA6_Attrib1: .PROC
                            	Set_IOA6_Attrib1:
0000A9D9 A8 DA              	    push r1,r5 to [sp];
0000A9DA 11 93 03 70        	    r1=  [P_IOA_Attrib]
0000A9DC 0A 95 BF FF        	    r2= 0xffbf
0000A9DE 02 B3              	    r1= r1&r2
0000A9DF 0A 95 40 00        	    r2=  0x0040
0000A9E1 02 A3              	    r1=r1|r2
0000A9E2 19 D3 03 70        	    [P_IOA_Attrib]=r1 
0000A9E4 A8 90              	    pop r1,r5 from [sp]
0000A9E5 90 9A              	    retf;
                            	    .ENDP
                            	.public _Set_IOA7_Attrib0
                            	.public Set_IOA7_Attrib0
                            	_Set_IOA7_Attrib0: .PROC
                            	Set_IOA7_Attrib0:
0000A9E6 A8 DA              	    push r1,r5 to [sp];
0000A9E7 11 93 03 70        	    r1=  [P_IOA_Attrib]
0000A9E9 0A 95 7F FF        	    r2= 0xff7f
0000A9EB 02 B3              	    r1= r1&r2
0000A9EC 19 D3 03 70        	    [P_IOA_Attrib]=r1 
0000A9EE A8 90              	    pop r1,r5 from [sp]
0000A9EF 90 9A              	    retf;
                            	    .ENDP
                            	.public _Set_IOA7_Attrib1
                            	.public Set_IOA7_Attrib1
                            	_Set_IOA7_Attrib1: .PROC
                            	Set_IOA7_Attrib1:
0000A9F0 A8 DA              	    push r1,r5 to [sp];
0000A9F1 11 93 03 70        	    r1=  [P_IOA_Attrib]
0000A9F3 0A 95 7F FF        	    r2= 0xff7f
0000A9F5 02 B3              	    r1= r1&r2
0000A9F6 0A 95 80 00        	    r2=  0x0080
0000A9F8 02 A3              	    r1=r1|r2
0000A9F9 19 D3 03 70        	    [P_IOA_Attrib]=r1 
0000A9FB A8 90              	    pop r1,r5 from [sp]
0000A9FC 90 9A              	    retf;
                            	    .ENDP
                            	.public _Set_IOA8_Attrib0
                            	.public Set_IOA8_Attrib0
                            	_Set_IOA8_Attrib0: .PROC
                            	Set_IOA8_Attrib0:
0000A9FD A8 DA              	    push r1,r5 to [sp];
0000A9FE 11 93 03 70        	    r1=  [P_IOA_Attrib]
0000AA00 0A 95 FF FE        	    r2= 0xfeff
0000AA02 02 B3              	    r1= r1&r2
0000AA03 19 D3 03 70        	    [P_IOA_Attrib]=r1 
0000AA05 A8 90              	    pop r1,r5 from [sp]
0000AA06 90 9A              	    retf;
                            	    .ENDP
                            	.public _Set_IOA8_Attrib1
                            	.public Set_IOA8_Attrib1
                            	_Set_IOA8_Attrib1: .PROC
                            	Set_IOA8_Attrib1:
0000AA07 A8 DA              	    push r1,r5 to [sp];
0000AA08 11 93 03 70        	    r1=  [P_IOA_Attrib]
0000AA0A 0A 95 FF FE        	    r2= 0xfeff
0000AA0C 02 B3              	    r1= r1&r2
0000AA0D 0A 95 00 01        	    r2=  0x0100
0000AA0F 02 A3              	    r1=r1|r2
0000AA10 19 D3 03 70        	    [P_IOA_Attrib]=r1 
0000AA12 A8 90              	    pop r1,r5 from [sp]
0000AA13 90 9A              	    retf;
                            	    .ENDP
                            	.public _Set_IOA9_Attrib0
                            	.public Set_IOA9_Attrib0
                            	_Set_IOA9_Attrib0: .PROC
                            	Set_IOA9_Attrib0:
0000AA14 A8 DA              	    push r1,r5 to [sp];
0000AA15 11 93 03 70        	    r1=  [P_IOA_Attrib]
0000AA17 0A 95 FF FD        	    r2= 0xfdff
0000AA19 02 B3              	    r1= r1&r2
0000AA1A 19 D3 03 70        	    [P_IOA_Attrib]=r1 
0000AA1C A8 90              	    pop r1,r5 from [sp]
0000AA1D 90 9A              	    retf;
                            	    .ENDP
                            	.public _Set_IOA9_Attrib1
                            	.public Set_IOA9_Attrib1
                            	_Set_IOA9_Attrib1: .PROC
                            	Set_IOA9_Attrib1:
0000AA1E A8 DA              	    push r1,r5 to [sp];
0000AA1F 11 93 03 70        	    r1=  [P_IOA_Attrib]
0000AA21 0A 95 FF FD        	    r2= 0xfdff
0000AA23 02 B3              	    r1= r1&r2
0000AA24 0A 95 00 02        	    r2=  0x0200
0000AA26 02 A3              	    r1=r1|r2
0000AA27 19 D3 03 70        	    [P_IOA_Attrib]=r1 
0000AA29 A8 90              	    pop r1,r5 from [sp]
0000AA2A 90 9A              	    retf;
                            	    .ENDP
                            	.public _Set_IOA10_Attrib0
                            	.public Set_IOA10_Attrib0
                            	_Set_IOA10_Attrib0: .PROC
                            	Set_IOA10_Attrib0:
0000AA2B A8 DA              	    push r1,r5 to [sp];
0000AA2C 11 93 03 70        	    r1=  [P_IOA_Attrib]
0000AA2E 0A 95 FF FB        	    r2= 0xfbff
0000AA30 02 B3              	    r1= r1&r2
0000AA31 19 D3 03 70        	    [P_IOA_Attrib]=r1 
0000AA33 A8 90              	    pop r1,r5 from [sp]
0000AA34 90 9A              	    retf;
                            	    .ENDP
                            	.public _Set_IOA10_Attrib1
                            	.public Set_IOA10_Attrib1
                            	_Set_IOA10_Attrib1: .PROC
                            	Set_IOA10_Attrib1:
0000AA35 A8 DA              	    push r1,r5 to [sp];
0000AA36 11 93 03 70        	    r1=  [P_IOA_Attrib]
0000AA38 0A 95 FF FB        	    r2= 0xfbff
0000AA3A 02 B3              	    r1= r1&r2
0000AA3B 0A 95 00 04        	    r2=  0x0400
0000AA3D 02 A3              	    r1=r1|r2
0000AA3E 19 D3 03 70        	    [P_IOA_Attrib]=r1 
0000AA40 A8 90              	    pop r1,r5 from [sp]
0000AA41 90 9A              	    retf;
                            	    .ENDP
                            	.public _Set_IOA11_Attrib0
                            	.public Set_IOA11_Attrib0
                            	_Set_IOA11_Attrib0: .PROC
                            	Set_IOA11_Attrib0:
0000AA42 A8 DA              	    push r1,r5 to [sp];
0000AA43 11 93 03 70        	    r1=  [P_IOA_Attrib]
0000AA45 0A 95 FF F7        	    r2= 0xf7ff
0000AA47 02 B3              	    r1= r1&r2
0000AA48 19 D3 03 70        	    [P_IOA_Attrib]=r1 
0000AA4A A8 90              	    pop r1,r5 from [sp]
0000AA4B 90 9A              	    retf;
                            	    .ENDP
                            	.public _Set_IOA11_Attrib1
                            	.public Set_IOA11_Attrib1
                            	_Set_IOA11_Attrib1: .PROC
                            	Set_IOA11_Attrib1:
0000AA4C A8 DA              	    push r1,r5 to [sp];
0000AA4D 11 93 03 70        	    r1=  [P_IOA_Attrib]
0000AA4F 0A 95 FF F7        	    r2= 0xf7ff
0000AA51 02 B3              	    r1= r1&r2
0000AA52 0A 95 00 08        	    r2=  0x0800
0000AA54 02 A3              	    r1=r1|r2
0000AA55 19 D3 03 70        	    [P_IOA_Attrib]=r1 
0000AA57 A8 90              	    pop r1,r5 from [sp]
0000AA58 90 9A              	    retf;
                            	    .ENDP
                            	.public _Set_IOA12_Attrib0
                            	.public Set_IOA12_Attrib0
                            	_Set_IOA12_Attrib0: .PROC
                            	Set_IOA12_Attrib0:
0000AA59 A8 DA              	    push r1,r5 to [sp];
0000AA5A 11 93 03 70        	    r1=  [P_IOA_Attrib]
0000AA5C 0A 95 FF EF        	    r2= 0xefff
0000AA5E 02 B3              	    r1= r1&r2
0000AA5F 19 D3 03 70        	    [P_IOA_Attrib]=r1 
0000AA61 A8 90              	    pop r1,r5 from [sp]
0000AA62 90 9A              	    retf;
                            	    .ENDP
                            	.public _Set_IOA12_Attrib1
                            	.public Set_IOA12_Attrib1
                            	_Set_IOA12_Attrib1: .PROC
                            	Set_IOA12_Attrib1:
0000AA63 A8 DA              	    push r1,r5 to [sp];
0000AA64 11 93 03 70        	    r1=  [P_IOA_Attrib]
0000AA66 0A 95 FF EF        	    r2= 0xefff
0000AA68 02 B3              	    r1= r1&r2
0000AA69 0A 95 00 10        	    r2=  0x1000
0000AA6B 02 A3              	    r1=r1|r2
0000AA6C 19 D3 03 70        	    [P_IOA_Attrib]=r1 
0000AA6E A8 90              	    pop r1,r5 from [sp]
0000AA6F 90 9A              	    retf;
                            	    .ENDP
                            	.public _Set_IOA13_Attrib0
                            	.public Set_IOA13_Attrib0
                            	_Set_IOA13_Attrib0: .PROC
                            	Set_IOA13_Attrib0:
0000AA70 A8 DA              	    push r1,r5 to [sp];
0000AA71 11 93 03 70        	    r1=  [P_IOA_Attrib]
0000AA73 0A 95 FF DF        	    r2= 0xdfff
0000AA75 02 B3              	    r1= r1&r2
0000AA76 19 D3 03 70        	    [P_IOA_Attrib]=r1 
0000AA78 A8 90              	    pop r1,r5 from [sp]
0000AA79 90 9A              	    retf;
                            	    .ENDP
                            	.public _Set_IOA13_Attrib1
                            	.public Set_IOA13_Attrib1
                            	_Set_IOA13_Attrib1: .PROC
                            	Set_IOA13_Attrib1:
0000AA7A A8 DA              	    push r1,r5 to [sp];
0000AA7B 11 93 03 70        	    r1=  [P_IOA_Attrib]
0000AA7D 0A 95 FF DF        	    r2= 0xdfff
0000AA7F 02 B3              	    r1= r1&r2
0000AA80 0A 95 00 20        	    r2=  0x2000
0000AA82 02 A3              	    r1=r1|r2
0000AA83 19 D3 03 70        	    [P_IOA_Attrib]=r1 
0000AA85 A8 90              	    pop r1,r5 from [sp]
0000AA86 90 9A              	    retf;
                            	    .ENDP
                            	.public _Set_IOA14_Attrib0
                            	.public Set_IOA14_Attrib0
                            	_Set_IOA14_Attrib0: .PROC
                            	Set_IOA14_Attrib0:
0000AA87 A8 DA              	    push r1,r5 to [sp];
0000AA88 11 93 03 70        	    r1=  [P_IOA_Attrib]
0000AA8A 0A 95 FF BF        	    r2= 0xbfff
0000AA8C 02 B3              	    r1= r1&r2
0000AA8D 19 D3 03 70        	    [P_IOA_Attrib]=r1 
0000AA8F A8 90              	    pop r1,r5 from [sp]
0000AA90 90 9A              	    retf;
                            	    .ENDP
                            	.public _Set_IOA14_Attrib1
                            	.public Set_IOA14_Attrib1
                            	_Set_IOA14_Attrib1: .PROC
                            	Set_IOA14_Attrib1:
0000AA91 A8 DA              	    push r1,r5 to [sp];
0000AA92 11 93 03 70        	    r1=  [P_IOA_Attrib]
0000AA94 0A 95 FF BF        	    r2= 0xbfff
0000AA96 02 B3              	    r1= r1&r2
0000AA97 0A 95 00 40        	    r2=  0x4000
0000AA99 02 A3              	    r1=r1|r2
0000AA9A 19 D3 03 70        	    [P_IOA_Attrib]=r1 
0000AA9C A8 90              	    pop r1,r5 from [sp]
0000AA9D 90 9A              	    retf;
                            	    .ENDP
                            	.public _Set_IOA15_Attrib0
                            	.public Set_IOA15_Attrib0
                            	_Set_IOA15_Attrib0: .PROC
                            	Set_IOA15_Attrib0:
0000AA9E A8 DA              	    push r1,r5 to [sp];
0000AA9F 11 93 03 70        	    r1=  [P_IOA_Attrib]
0000AAA1 0A 95 FF 7F        	    r2= 0x7fff
0000AAA3 02 B3              	    r1= r1&r2
0000AAA4 19 D3 03 70        	    [P_IOA_Attrib]=r1 
0000AAA6 A8 90              	    pop r1,r5 from [sp]
0000AAA7 90 9A              	    retf;
                            	    .ENDP
                            	.public _Set_IOA15_Attrib1
                            	.public Set_IOA15_Attrib1
                            	_Set_IOA15_Attrib1: .PROC
                            	Set_IOA15_Attrib1:
0000AAA8 A8 DA              	    push r1,r5 to [sp];
0000AAA9 11 93 03 70        	    r1=  [P_IOA_Attrib]
0000AAAB 0A 95 FF 7F        	    r2= 0x7fff
0000AAAD 02 B3              	    r1= r1&r2
0000AAAE 0A 95 00 80        	    r2=  0x8000
0000AAB0 02 A3              	    r1=r1|r2
0000AAB1 19 D3 03 70        	    [P_IOA_Attrib]=r1 
0000AAB3 A8 90              	    pop r1,r5 from [sp]
0000AAB4 90 9A              	    retf;
                            	    .ENDP
                            	.public _Set_IOA0_Buffer0
                            	.public Set_IOA0_Buffer0
                            	_Set_IOA0_Buffer0: .PROC
                            	Set_IOA0_Buffer0:
0000AAB5 A8 DA              	    push r1,r5 to [sp];
0000AAB6 11 93 01 70        	    r1=  [P_IOA_Buffer]
0000AAB8 0A 95 FE FF        	    r2= 0xfffe
0000AABA 02 B3              	    r1= r1&r2
0000AABB 19 D3 01 70        	    [P_IOA_Buffer]=r1 
0000AABD A8 90              	    pop r1,r5 from [sp]
0000AABE 90 9A              	    retf;
                            	    .ENDP
                            	.public _Set_IOA0_Buffer1
                            	.public Set_IOA0_Buffer1
                            	_Set_IOA0_Buffer1: .PROC
                            	Set_IOA0_Buffer1:
0000AABF A8 DA              	    push r1,r5 to [sp];
0000AAC0 11 93 01 70        	    r1=  [P_IOA_Buffer]
0000AAC2 0A 95 FE FF        	    r2= 0xfffe
0000AAC4 02 B3              	    r1= r1&r2
0000AAC5 41 94              	    r2=  0x0001
0000AAC6 02 A3              	    r1=r1|r2
0000AAC7 19 D3 01 70        	    [P_IOA_Buffer]=r1 
0000AAC9 A8 90              	    pop r1,r5 from [sp]
0000AACA 90 9A              	    retf;
                            	    .ENDP
                            	.public _Set_IOA1_Buffer0
                            	.public Set_IOA1_Buffer0
                            	_Set_IOA1_Buffer0: .PROC
                            	Set_IOA1_Buffer0:
0000AACB A8 DA              	    push r1,r5 to [sp];
0000AACC 11 93 01 70        	    r1=  [P_IOA_Buffer]
0000AACE 0A 95 FD FF        	    r2= 0xfffd
0000AAD0 02 B3              	    r1= r1&r2
0000AAD1 19 D3 01 70        	    [P_IOA_Buffer]=r1 
0000AAD3 A8 90              	    pop r1,r5 from [sp]
0000AAD4 90 9A              	    retf;
                            	    .ENDP
                            	.public _Set_IOA1_Buffer1
                            	.public Set_IOA1_Buffer1
                            	_Set_IOA1_Buffer1: .PROC
                            	Set_IOA1_Buffer1:
0000AAD5 A8 DA              	    push r1,r5 to [sp];
0000AAD6 11 93 01 70        	    r1=  [P_IOA_Buffer]
0000AAD8 0A 95 FD FF        	    r2= 0xfffd
0000AADA 02 B3              	    r1= r1&r2
0000AADB 42 94              	    r2=  0x0002
0000AADC 02 A3              	    r1=r1|r2
0000AADD 19 D3 01 70        	    [P_IOA_Buffer]=r1 
0000AADF A8 90              	    pop r1,r5 from [sp]
0000AAE0 90 9A              	    retf;
                            	    .ENDP
                            	.public _Set_IOA2_Buffer0
                            	.public Set_IOA2_Buffer0
                            	_Set_IOA2_Buffer0: .PROC
                            	Set_IOA2_Buffer0:
0000AAE1 A8 DA              	    push r1,r5 to [sp];
0000AAE2 11 93 01 70        	    r1=  [P_IOA_Buffer]
0000AAE4 0A 95 FB FF        	    r2= 0xfffb
0000AAE6 02 B3              	    r1= r1&r2
0000AAE7 19 D3 01 70        	    [P_IOA_Buffer]=r1 
0000AAE9 A8 90              	    pop r1,r5 from [sp]
0000AAEA 90 9A              	    retf;
                            	    .ENDP
                            	.public _Set_IOA2_Buffer1
                            	.public Set_IOA2_Buffer1
                            	_Set_IOA2_Buffer1: .PROC
                            	Set_IOA2_Buffer1:
0000AAEB A8 DA              	    push r1,r5 to [sp];
0000AAEC 11 93 01 70        	    r1=  [P_IOA_Buffer]
0000AAEE 0A 95 FB FF        	    r2= 0xfffb
0000AAF0 02 B3              	    r1= r1&r2
0000AAF1 44 94              	    r2=  0x0004
0000AAF2 02 A3              	    r1=r1|r2
0000AAF3 19 D3 01 70        	    [P_IOA_Buffer]=r1 
0000AAF5 A8 90              	    pop r1,r5 from [sp]
0000AAF6 90 9A              	    retf;
                            	    .ENDP
                            	.public _Set_IOA3_Buffer0
                            	.public Set_IOA3_Buffer0
                            	_Set_IOA3_Buffer0: .PROC
                            	Set_IOA3_Buffer0:
0000AAF7 A8 DA              	    push r1,r5 to [sp];
0000AAF8 11 93 01 70        	    r1=  [P_IOA_Buffer]
0000AAFA 0A 95 F7 FF        	    r2= 0xfff7
0000AAFC 02 B3              	    r1= r1&r2
0000AAFD 19 D3 01 70        	    [P_IOA_Buffer]=r1 
0000AAFF A8 90              	    pop r1,r5 from [sp]
0000AB00 90 9A              	    retf;
                            	    .ENDP
                            	.public _Set_IOA3_Buffer1
                            	.public Set_IOA3_Buffer1
                            	_Set_IOA3_Buffer1: .PROC
                            	Set_IOA3_Buffer1:
0000AB01 A8 DA              	    push r1,r5 to [sp];
0000AB02 11 93 01 70        	    r1=  [P_IOA_Buffer]
0000AB04 0A 95 F7 FF        	    r2= 0xfff7
0000AB06 02 B3              	    r1= r1&r2
0000AB07 48 94              	    r2=  0x0008
0000AB08 02 A3              	    r1=r1|r2
0000AB09 19 D3 01 70        	    [P_IOA_Buffer]=r1 
0000AB0B A8 90              	    pop r1,r5 from [sp]
0000AB0C 90 9A              	    retf;
                            	    .ENDP
                            	.public _Set_IOA4_Buffer0
                            	.public Set_IOA4_Buffer0
                            	_Set_IOA4_Buffer0: .PROC
                            	Set_IOA4_Buffer0:
0000AB0D A8 DA              	    push r1,r5 to [sp];
0000AB0E 11 93 01 70        	    r1=  [P_IOA_Buffer]
0000AB10 0A 95 EF FF        	    r2= 0xffef
0000AB12 02 B3              	    r1= r1&r2
0000AB13 19 D3 01 70        	    [P_IOA_Buffer]=r1 
0000AB15 A8 90              	    pop r1,r5 from [sp]
0000AB16 90 9A              	    retf;
                            	    .ENDP
                            	.public _Set_IOA4_Buffer1
                            	.public Set_IOA4_Buffer1
                            	_Set_IOA4_Buffer1: .PROC
                            	Set_IOA4_Buffer1:
0000AB17 A8 DA              	    push r1,r5 to [sp];
0000AB18 11 93 01 70        	    r1=  [P_IOA_Buffer]
0000AB1A 0A 95 EF FF        	    r2= 0xffef
0000AB1C 02 B3              	    r1= r1&r2
0000AB1D 50 94              	    r2=  0x0010
0000AB1E 02 A3              	    r1=r1|r2
0000AB1F 19 D3 01 70        	    [P_IOA_Buffer]=r1 
0000AB21 A8 90              	    pop r1,r5 from [sp]
0000AB22 90 9A              	    retf;
                            	    .ENDP
                            	.public _Set_IOA5_Buffer0
                            	.public Set_IOA5_Buffer0
                            	_Set_IOA5_Buffer0: .PROC
                            	Set_IOA5_Buffer0:
0000AB23 A8 DA              	    push r1,r5 to [sp];
0000AB24 11 93 01 70        	    r1=  [P_IOA_Buffer]
0000AB26 0A 95 DF FF        	    r2= 0xffdf
0000AB28 02 B3              	    r1= r1&r2
0000AB29 19 D3 01 70        	    [P_IOA_Buffer]=r1 
0000AB2B A8 90              	    pop r1,r5 from [sp]
0000AB2C 90 9A              	    retf;
                            	    .ENDP
                            	.public _Set_IOA5_Buffer1
                            	.public Set_IOA5_Buffer1
                            	_Set_IOA5_Buffer1: .PROC
                            	Set_IOA5_Buffer1:
0000AB2D A8 DA              	    push r1,r5 to [sp];
0000AB2E 11 93 01 70        	    r1=  [P_IOA_Buffer]
0000AB30 0A 95 DF FF        	    r2= 0xffdf
0000AB32 02 B3              	    r1= r1&r2
0000AB33 60 94              	    r2=  0x0020
0000AB34 02 A3              	    r1=r1|r2
0000AB35 19 D3 01 70        	    [P_IOA_Buffer]=r1 
0000AB37 A8 90              	    pop r1,r5 from [sp]
0000AB38 90 9A              	    retf;
                            	    .ENDP
                            	.public _Set_IOA6_Buffer0
                            	.public Set_IOA6_Buffer0
                            	_Set_IOA6_Buffer0: .PROC
                            	Set_IOA6_Buffer0:
0000AB39 A8 DA              	    push r1,r5 to [sp];
0000AB3A 11 93 01 70        	    r1=  [P_IOA_Buffer]
0000AB3C 0A 95 BF FF        	    r2= 0xffbf
0000AB3E 02 B3              	    r1= r1&r2
0000AB3F 19 D3 01 70        	    [P_IOA_Buffer]=r1 
0000AB41 A8 90              	    pop r1,r5 from [sp]
0000AB42 90 9A              	    retf;
                            	    .ENDP
                            	.public _Set_IOA6_Buffer1
                            	.public Set_IOA6_Buffer1
                            	_Set_IOA6_Buffer1: .PROC
                            	Set_IOA6_Buffer1:
0000AB43 A8 DA              	    push r1,r5 to [sp];
0000AB44 11 93 01 70        	    r1=  [P_IOA_Buffer]
0000AB46 0A 95 BF FF        	    r2= 0xffbf
0000AB48 02 B3              	    r1= r1&r2
0000AB49 0A 95 40 00        	    r2=  0x0040
0000AB4B 02 A3              	    r1=r1|r2
0000AB4C 19 D3 01 70        	    [P_IOA_Buffer]=r1 
0000AB4E A8 90              	    pop r1,r5 from [sp]
0000AB4F 90 9A              	    retf;
                            	    .ENDP
                            	.public _Set_IOA7_Buffer0
                            	.public Set_IOA7_Buffer0
                            	_Set_IOA7_Buffer0: .PROC
                            	Set_IOA7_Buffer0:
0000AB50 A8 DA              	    push r1,r5 to [sp];
0000AB51 11 93 01 70        	    r1=  [P_IOA_Buffer]
0000AB53 0A 95 7F FF        	    r2= 0xff7f
0000AB55 02 B3              	    r1= r1&r2
0000AB56 19 D3 01 70        	    [P_IOA_Buffer]=r1 
0000AB58 A8 90              	    pop r1,r5 from [sp]
0000AB59 90 9A              	    retf;
                            	    .ENDP
                            	.public _Set_IOA7_Buffer1
                            	.public Set_IOA7_Buffer1
                            	_Set_IOA7_Buffer1: .PROC
                            	Set_IOA7_Buffer1:
0000AB5A A8 DA              	    push r1,r5 to [sp];
0000AB5B 11 93 01 70        	    r1=  [P_IOA_Buffer]
0000AB5D 0A 95 7F FF        	    r2= 0xff7f
0000AB5F 02 B3              	    r1= r1&r2
0000AB60 0A 95 80 00        	    r2=  0x0080
0000AB62 02 A3              	    r1=r1|r2
0000AB63 19 D3 01 70        	    [P_IOA_Buffer]=r1 
0000AB65 A8 90              	    pop r1,r5 from [sp]
0000AB66 90 9A              	    retf;
                            	    .ENDP
                            	.public _Set_IOA8_Buffer0
                            	.public Set_IOA8_Buffer0
                            	_Set_IOA8_Buffer0: .PROC
                            	Set_IOA8_Buffer0:
0000AB67 A8 DA              	    push r1,r5 to [sp];
0000AB68 11 93 01 70        	    r1=  [P_IOA_Buffer]
0000AB6A 0A 95 FF FE        	    r2= 0xfeff
0000AB6C 02 B3              	    r1= r1&r2
0000AB6D 19 D3 01 70        	    [P_IOA_Buffer]=r1 
0000AB6F A8 90              	    pop r1,r5 from [sp]
0000AB70 90 9A              	    retf;
                            	    .ENDP
                            	.public _Set_IOA8_Buffer1
                            	.public Set_IOA8_Buffer1
                            	_Set_IOA8_Buffer1: .PROC
                            	Set_IOA8_Buffer1:
0000AB71 A8 DA              	    push r1,r5 to [sp];
0000AB72 11 93 01 70        	    r1=  [P_IOA_Buffer]
0000AB74 0A 95 FF FE        	    r2= 0xfeff
0000AB76 02 B3              	    r1= r1&r2
0000AB77 0A 95 00 01        	    r2=  0x0100
0000AB79 02 A3              	    r1=r1|r2
0000AB7A 19 D3 01 70        	    [P_IOA_Buffer]=r1 
0000AB7C A8 90              	    pop r1,r5 from [sp]
0000AB7D 90 9A              	    retf;
                            	    .ENDP
                            	.public _Set_IOA9_Buffer0
                            	.public Set_IOA9_Buffer0
                            	_Set_IOA9_Buffer0: .PROC
                            	Set_IOA9_Buffer0:
0000AB7E A8 DA              	    push r1,r5 to [sp];
0000AB7F 11 93 01 70        	    r1=  [P_IOA_Buffer]
0000AB81 0A 95 FF FD        	    r2= 0xfdff
0000AB83 02 B3              	    r1= r1&r2
0000AB84 19 D3 01 70        	    [P_IOA_Buffer]=r1 
0000AB86 A8 90              	    pop r1,r5 from [sp]
0000AB87 90 9A              	    retf;
                            	    .ENDP
                            	.public _Set_IOA9_Buffer1
                            	.public Set_IOA9_Buffer1
                            	_Set_IOA9_Buffer1: .PROC
                            	Set_IOA9_Buffer1:
0000AB88 A8 DA              	    push r1,r5 to [sp];
0000AB89 11 93 01 70        	    r1=  [P_IOA_Buffer]
0000AB8B 0A 95 FF FD        	    r2= 0xfdff
0000AB8D 02 B3              	    r1= r1&r2
0000AB8E 0A 95 00 02        	    r2=  0x0200
0000AB90 02 A3              	    r1=r1|r2
0000AB91 19 D3 01 70        	    [P_IOA_Buffer]=r1 
0000AB93 A8 90              	    pop r1,r5 from [sp]
0000AB94 90 9A              	    retf;
                            	    .ENDP
                            	.public _Set_IOA10_Buffer0
                            	.public Set_IOA10_Buffer0
                            	_Set_IOA10_Buffer0: .PROC
                            	Set_IOA10_Buffer0:
0000AB95 A8 DA              	    push r1,r5 to [sp];
0000AB96 11 93 01 70        	    r1=  [P_IOA_Buffer]
0000AB98 0A 95 FF FB        	    r2= 0xfbff
0000AB9A 02 B3              	    r1= r1&r2
0000AB9B 19 D3 01 70        	    [P_IOA_Buffer]=r1 
0000AB9D A8 90              	    pop r1,r5 from [sp]
0000AB9E 90 9A              	    retf;
                            	    .ENDP
                            	.public _Set_IOA10_Buffer1
                            	.public Set_IOA10_Buffer1
                            	_Set_IOA10_Buffer1: .PROC
                            	Set_IOA10_Buffer1:
0000AB9F A8 DA              	    push r1,r5 to [sp];
0000ABA0 11 93 01 70        	    r1=  [P_IOA_Buffer]
0000ABA2 0A 95 FF FB        	    r2= 0xfbff
0000ABA4 02 B3              	    r1= r1&r2
0000ABA5 0A 95 00 04        	    r2=  0x0400
0000ABA7 02 A3              	    r1=r1|r2
0000ABA8 19 D3 01 70        	    [P_IOA_Buffer]=r1 
0000ABAA A8 90              	    pop r1,r5 from [sp]
0000ABAB 90 9A              	    retf;
                            	    .ENDP
                            	.public _Set_IOA11_Buffer0
                            	.public Set_IOA11_Buffer0
                            	_Set_IOA11_Buffer0: .PROC
                            	Set_IOA11_Buffer0:
0000ABAC A8 DA              	    push r1,r5 to [sp];
0000ABAD 11 93 01 70        	    r1=  [P_IOA_Buffer]
0000ABAF 0A 95 FF F7        	    r2= 0xf7ff
0000ABB1 02 B3              	    r1= r1&r2
0000ABB2 19 D3 01 70        	    [P_IOA_Buffer]=r1 
0000ABB4 A8 90              	    pop r1,r5 from [sp]
0000ABB5 90 9A              	    retf;
                            	    .ENDP
                            	.public _Set_IOA11_Buffer1
                            	.public Set_IOA11_Buffer1
                            	_Set_IOA11_Buffer1: .PROC
                            	Set_IOA11_Buffer1:
0000ABB6 A8 DA              	    push r1,r5 to [sp];
0000ABB7 11 93 01 70        	    r1=  [P_IOA_Buffer]
0000ABB9 0A 95 FF F7        	    r2= 0xf7ff
0000ABBB 02 B3              	    r1= r1&r2
0000ABBC 0A 95 00 08        	    r2=  0x0800
0000ABBE 02 A3              	    r1=r1|r2
0000ABBF 19 D3 01 70        	    [P_IOA_Buffer]=r1 
0000ABC1 A8 90              	    pop r1,r5 from [sp]
0000ABC2 90 9A              	    retf;
                            	    .ENDP
                            	.public _Set_IOA12_Buffer0
                            	.public Set_IOA12_Buffer0
                            	_Set_IOA12_Buffer0: .PROC
                            	Set_IOA12_Buffer0:
0000ABC3 A8 DA              	    push r1,r5 to [sp];
0000ABC4 11 93 01 70        	    r1=  [P_IOA_Buffer]
0000ABC6 0A 95 FF EF        	    r2= 0xefff
0000ABC8 02 B3              	    r1= r1&r2
0000ABC9 19 D3 01 70        	    [P_IOA_Buffer]=r1 
0000ABCB A8 90              	    pop r1,r5 from [sp]
0000ABCC 90 9A              	    retf;
                            	    .ENDP
                            	.public _Set_IOA12_Buffer1
                            	.public Set_IOA12_Buffer1
                            	_Set_IOA12_Buffer1: .PROC
                            	Set_IOA12_Buffer1:
0000ABCD A8 DA              	    push r1,r5 to [sp];
0000ABCE 11 93 01 70        	    r1=  [P_IOA_Buffer]
0000ABD0 0A 95 FF EF        	    r2= 0xefff
0000ABD2 02 B3              	    r1= r1&r2
0000ABD3 0A 95 00 10        	    r2=  0x1000
0000ABD5 02 A3              	    r1=r1|r2
0000ABD6 19 D3 01 70        	    [P_IOA_Buffer]=r1 
0000ABD8 A8 90              	    pop r1,r5 from [sp]
0000ABD9 90 9A              	    retf;
                            	    .ENDP
                            	.public _Set_IOA13_Buffer0
                            	.public Set_IOA13_Buffer0
                            	_Set_IOA13_Buffer0: .PROC
                            	Set_IOA13_Buffer0:
0000ABDA A8 DA              	    push r1,r5 to [sp];
0000ABDB 11 93 01 70        	    r1=  [P_IOA_Buffer]
0000ABDD 0A 95 FF DF        	    r2= 0xdfff
0000ABDF 02 B3              	    r1= r1&r2
0000ABE0 19 D3 01 70        	    [P_IOA_Buffer]=r1 
0000ABE2 A8 90              	    pop r1,r5 from [sp]
0000ABE3 90 9A              	    retf;
                            	    .ENDP
                            	.public _Set_IOA13_Buffer1
                            	.public Set_IOA13_Buffer1
                            	_Set_IOA13_Buffer1: .PROC
                            	Set_IOA13_Buffer1:
0000ABE4 A8 DA              	    push r1,r5 to [sp];
0000ABE5 11 93 01 70        	    r1=  [P_IOA_Buffer]
0000ABE7 0A 95 FF DF        	    r2= 0xdfff
0000ABE9 02 B3              	    r1= r1&r2
0000ABEA 0A 95 00 20        	    r2=  0x2000
0000ABEC 02 A3              	    r1=r1|r2
0000ABED 19 D3 01 70        	    [P_IOA_Buffer]=r1 
0000ABEF A8 90              	    pop r1,r5 from [sp]
0000ABF0 90 9A              	    retf;
                            	    .ENDP
                            	.public _Set_IOA14_Buffer0
                            	.public Set_IOA14_Buffer0
                            	_Set_IOA14_Buffer0: .PROC
                            	Set_IOA14_Buffer0:
0000ABF1 A8 DA              	    push r1,r5 to [sp];
0000ABF2 11 93 01 70        	    r1=  [P_IOA_Buffer]
0000ABF4 0A 95 FF BF        	    r2= 0xbfff
0000ABF6 02 B3              	    r1= r1&r2
0000ABF7 19 D3 01 70        	    [P_IOA_Buffer]=r1 
0000ABF9 A8 90              	    pop r1,r5 from [sp]
0000ABFA 90 9A              	    retf;
                            	    .ENDP
                            	.public _Set_IOA14_Buffer1
                            	.public Set_IOA14_Buffer1
                            	_Set_IOA14_Buffer1: .PROC
                            	Set_IOA14_Buffer1:
0000ABFB A8 DA              	    push r1,r5 to [sp];
0000ABFC 11 93 01 70        	    r1=  [P_IOA_Buffer]
0000ABFE 0A 95 FF BF        	    r2= 0xbfff
0000AC00 02 B3              	    r1= r1&r2
0000AC01 0A 95 00 40        	    r2=  0x4000
0000AC03 02 A3              	    r1=r1|r2
0000AC04 19 D3 01 70        	    [P_IOA_Buffer]=r1 
0000AC06 A8 90              	    pop r1,r5 from [sp]
0000AC07 90 9A              	    retf;
                            	    .ENDP
                            	.public _Set_IOA15_Buffer0
                            	.public Set_IOA15_Buffer0
                            	_Set_IOA15_Buffer0: .PROC
                            	Set_IOA15_Buffer0:
0000AC08 A8 DA              	    push r1,r5 to [sp];
0000AC09 11 93 01 70        	    r1=  [P_IOA_Buffer]
0000AC0B 0A 95 FF 7F        	    r2= 0x7fff
0000AC0D 02 B3              	    r1= r1&r2
0000AC0E 19 D3 01 70        	    [P_IOA_Buffer]=r1 
0000AC10 A8 90              	    pop r1,r5 from [sp]
0000AC11 90 9A              	    retf;
                            	    .ENDP
                            	.public _Set_IOA15_Buffer1
                            	.public Set_IOA15_Buffer1
                            	_Set_IOA15_Buffer1: .PROC
                            	Set_IOA15_Buffer1:
0000AC12 A8 DA              	    push r1,r5 to [sp];
0000AC13 11 93 01 70        	    r1=  [P_IOA_Buffer]
0000AC15 0A 95 FF 7F        	    r2= 0x7fff
0000AC17 02 B3              	    r1= r1&r2
0000AC18 0A 95 00 80        	    r2=  0x8000
0000AC1A 02 A3              	    r1=r1|r2
0000AC1B 19 D3 01 70        	    [P_IOA_Buffer]=r1 
0000AC1D A8 90              	    pop r1,r5 from [sp]
0000AC1E 90 9A              	    retf;
                            	    .ENDP
                            	.public _Set_IOA0_Data0
                            	.public Set_IOA0_Data0
                            	_Set_IOA0_Data0: .PROC
                            	Set_IOA0_Data0:
0000AC1F A8 DA              	    push r1,r5 to [sp];
0000AC20 11 93 00 70        	    r1=  [P_IOA_Data]
0000AC22 0A 95 FE FF        	    r2= 0xfffe
0000AC24 02 B3              	    r1= r1&r2
0000AC25 19 D3 00 70        	    [P_IOA_Data]=r1 
0000AC27 A8 90              	    pop r1,r5 from [sp]
0000AC28 90 9A              	    retf;
                            	    .ENDP
                            	.public _Set_IOA0_Data1
                            	.public Set_IOA0_Data1
                            	_Set_IOA0_Data1: .PROC
                            	Set_IOA0_Data1:
0000AC29 A8 DA              	    push r1,r5 to [sp];
0000AC2A 11 93 01 70        	    r1=  [P_IOA_Buffer]
0000AC2C 0A 95 FE FF        	    r2= 0xfffe
0000AC2E 02 B3              	    r1= r1&r2
0000AC2F 41 94              	    r2=  0x0001
0000AC30 02 A3              	    r1=r1|r2
0000AC31 19 D3 00 70        	    [P_IOA_Data]=r1 
0000AC33 A8 90              	    pop r1,r5 from [sp]
0000AC34 90 9A              	    retf;
                            	    .ENDP
                            	.public _Set_IOA1_Data0
                            	.public Set_IOA1_Data0
                            	_Set_IOA1_Data0: .PROC
                            	Set_IOA1_Data0:
0000AC35 A8 DA              	    push r1,r5 to [sp];
0000AC36 11 93 01 70        	    r1=  [P_IOA_Buffer]
0000AC38 0A 95 FD FF        	    r2= 0xfffd
0000AC3A 02 B3              	    r1= r1&r2
0000AC3B 19 D3 00 70        	    [P_IOA_Data]=r1 
0000AC3D A8 90              	    pop r1,r5 from [sp]
0000AC3E 90 9A              	    retf;
                            	    .ENDP
                            	.public _Set_IOA1_Data1
                            	.public Set_IOA1_Data1
                            	_Set_IOA1_Data1: .PROC
                            	Set_IOA1_Data1:
0000AC3F A8 DA              	    push r1,r5 to [sp];
0000AC40 11 93 01 70        	    r1=  [P_IOA_Buffer]
0000AC42 0A 95 FD FF        	    r2= 0xfffd
0000AC44 02 B3              	    r1= r1&r2
0000AC45 42 94              	    r2=  0x0002
0000AC46 02 A3              	    r1=r1|r2
0000AC47 19 D3 00 70        	    [P_IOA_Data]=r1 
0000AC49 A8 90              	    pop r1,r5 from [sp]
0000AC4A 90 9A              	    retf;
                            	    .ENDP
                            	.public _Set_IOA2_Data0
                            	.public Set_IOA2_Data0
                            	_Set_IOA2_Data0: .PROC
                            	Set_IOA2_Data0:
0000AC4B A8 DA              	    push r1,r5 to [sp];
0000AC4C 11 93 01 70        	    r1=  [P_IOA_Buffer]
0000AC4E 0A 95 FB FF        	    r2= 0xfffb
0000AC50 02 B3              	    r1= r1&r2
0000AC51 19 D3 00 70        	    [P_IOA_Data]=r1 
0000AC53 A8 90              	    pop r1,r5 from [sp]
0000AC54 90 9A              	    retf;
                            	    .ENDP
                            	.public _Set_IOA2_Data1
                            	.public Set_IOA2_Data1
                            	_Set_IOA2_Data1: .PROC
                            	Set_IOA2_Data1:
0000AC55 A8 DA              	    push r1,r5 to [sp];
0000AC56 11 93 01 70        	    r1=  [P_IOA_Buffer]
0000AC58 0A 95 FB FF        	    r2= 0xfffb
0000AC5A 02 B3              	    r1= r1&r2
0000AC5B 44 94              	    r2=  0x0004
0000AC5C 02 A3              	    r1=r1|r2
0000AC5D 19 D3 00 70        	    [P_IOA_Data]=r1 
0000AC5F A8 90              	    pop r1,r5 from [sp]
0000AC60 90 9A              	    retf;
                            	    .ENDP
                            	.public _Set_IOA3_Data0
                            	.public Set_IOA3_Data0
                            	_Set_IOA3_Data0: .PROC
                            	Set_IOA3_Data0:
0000AC61 A8 DA              	    push r1,r5 to [sp];
0000AC62 11 93 01 70        	    r1=  [P_IOA_Buffer]
0000AC64 0A 95 F7 FF        	    r2= 0xfff7
0000AC66 02 B3              	    r1= r1&r2
0000AC67 19 D3 00 70        	    [P_IOA_Data]=r1 
0000AC69 A8 90              	    pop r1,r5 from [sp]
0000AC6A 90 9A              	    retf;
                            	    .ENDP
                            	.public _Set_IOA3_Data1
                            	.public Set_IOA3_Data1
                            	_Set_IOA3_Data1: .PROC
                            	Set_IOA3_Data1:
0000AC6B A8 DA              	    push r1,r5 to [sp];
0000AC6C 11 93 01 70        	    r1=  [P_IOA_Buffer]
0000AC6E 0A 95 F7 FF        	    r2= 0xfff7
0000AC70 02 B3              	    r1= r1&r2
0000AC71 48 94              	    r2=  0x0008
0000AC72 02 A3              	    r1=r1|r2
0000AC73 19 D3 00 70        	    [P_IOA_Data]=r1 
0000AC75 A8 90              	    pop r1,r5 from [sp]
0000AC76 90 9A              	    retf;
                            	    .ENDP
                            	.public _Set_IOA4_Data0
                            	.public Set_IOA4_Data0
                            	_Set_IOA4_Data0: .PROC
                            	Set_IOA4_Data0:
0000AC77 A8 DA              	    push r1,r5 to [sp];
0000AC78 11 93 01 70        	    r1=  [P_IOA_Buffer]
0000AC7A 0A 95 EF FF        	    r2= 0xffef
0000AC7C 02 B3              	    r1= r1&r2
0000AC7D 19 D3 00 70        	    [P_IOA_Data]=r1 
0000AC7F A8 90              	    pop r1,r5 from [sp]
0000AC80 90 9A              	    retf;
                            	    .ENDP
                            	.public _Set_IOA4_Data1
                            	.public Set_IOA4_Data1
                            	_Set_IOA4_Data1: .PROC
                            	Set_IOA4_Data1:
0000AC81 A8 DA              	    push r1,r5 to [sp];
0000AC82 11 93 01 70        	    r1=  [P_IOA_Buffer]
0000AC84 0A 95 EF FF        	    r2= 0xffef
0000AC86 02 B3              	    r1= r1&r2
0000AC87 50 94              	    r2=  0x0010
0000AC88 02 A3              	    r1=r1|r2
0000AC89 19 D3 00 70        	    [P_IOA_Data]=r1 
0000AC8B A8 90              	    pop r1,r5 from [sp]
0000AC8C 90 9A              	    retf;
                            	    .ENDP
                            	.public _Set_IOA5_Data0
                            	.public Set_IOA5_Data0
                            	_Set_IOA5_Data0: .PROC
                            	Set_IOA5_Data0:
0000AC8D A8 DA              	    push r1,r5 to [sp];
0000AC8E 11 93 01 70        	    r1=  [P_IOA_Buffer]
0000AC90 0A 95 DF FF        	    r2= 0xffdf
0000AC92 02 B3              	    r1= r1&r2
0000AC93 19 D3 00 70        	    [P_IOA_Data]=r1 
0000AC95 A8 90              	    pop r1,r5 from [sp]
0000AC96 90 9A              	    retf;
                            	    .ENDP
                            	.public _Set_IOA5_Data1
                            	.public Set_IOA5_Data1
                            	_Set_IOA5_Data1: .PROC
                            	Set_IOA5_Data1:
0000AC97 A8 DA              	    push r1,r5 to [sp];
0000AC98 11 93 01 70        	    r1=  [P_IOA_Buffer]
0000AC9A 0A 95 DF FF        	    r2= 0xffdf
0000AC9C 02 B3              	    r1= r1&r2
0000AC9D 60 94              	    r2=  0x0020
0000AC9E 02 A3              	    r1=r1|r2
0000AC9F 19 D3 00 70        	    [P_IOA_Data]=r1 
0000ACA1 A8 90              	    pop r1,r5 from [sp]
0000ACA2 90 9A              	    retf;
                            	    .ENDP
                            	.public _Set_IOA6_Data0
                            	.public Set_IOA6_Data0
                            	_Set_IOA6_Data0: .PROC
                            	Set_IOA6_Data0:
0000ACA3 A8 DA              	    push r1,r5 to [sp];
0000ACA4 11 93 01 70        	    r1=  [P_IOA_Buffer]
0000ACA6 0A 95 BF FF        	    r2= 0xffbf
0000ACA8 02 B3              	    r1= r1&r2
0000ACA9 19 D3 00 70        	    [P_IOA_Data]=r1 
0000ACAB A8 90              	    pop r1,r5 from [sp]
0000ACAC 90 9A              	    retf;
                            	    .ENDP
                            	.public _Set_IOA6_Data1
                            	.public Set_IOA6_Data1
                            	_Set_IOA6_Data1: .PROC
                            	Set_IOA6_Data1:
0000ACAD A8 DA              	    push r1,r5 to [sp];
0000ACAE 11 93 01 70        	    r1=  [P_IOA_Buffer]
0000ACB0 0A 95 BF FF        	    r2= 0xffbf
0000ACB2 02 B3              	    r1= r1&r2
0000ACB3 0A 95 40 00        	    r2=  0x0040
0000ACB5 02 A3              	    r1=r1|r2
0000ACB6 19 D3 00 70        	    [P_IOA_Data]=r1 
0000ACB8 A8 90              	    pop r1,r5 from [sp]
0000ACB9 90 9A              	    retf;
                            	    .ENDP
                            	.public _Set_IOA7_Data0
                            	.public Set_IOA7_Data0
                            	_Set_IOA7_Data0: .PROC
                            	Set_IOA7_Data0:
0000ACBA A8 DA              	    push r1,r5 to [sp];
0000ACBB 11 93 01 70        	    r1=  [P_IOA_Buffer]
0000ACBD 0A 95 7F FF        	    r2= 0xff7f
0000ACBF 02 B3              	    r1= r1&r2
0000ACC0 19 D3 00 70        	    [P_IOA_Data]=r1 
0000ACC2 A8 90              	    pop r1,r5 from [sp]
0000ACC3 90 9A              	    retf;
                            	    .ENDP
                            	.public _Set_IOA7_Data1
                            	.public Set_IOA7_Data1
                            	_Set_IOA7_Data1: .PROC
                            	Set_IOA7_Data1:
0000ACC4 A8 DA              	    push r1,r5 to [sp];
0000ACC5 11 93 01 70        	    r1=  [P_IOA_Buffer]
0000ACC7 0A 95 7F FF        	    r2= 0xff7f
0000ACC9 02 B3              	    r1= r1&r2
0000ACCA 0A 95 80 00        	    r2=  0x0080
0000ACCC 02 A3              	    r1=r1|r2
0000ACCD 19 D3 00 70        	    [P_IOA_Data]=r1 
0000ACCF A8 90              	    pop r1,r5 from [sp]
0000ACD0 90 9A              	    retf;
                            	    .ENDP
                            	.public _Set_IOA8_Data0
                            	.public Set_IOA8_Data0
                            	_Set_IOA8_Data0: .PROC
                            	Set_IOA8_Data0:
0000ACD1 A8 DA              	    push r1,r5 to [sp];
0000ACD2 11 93 01 70        	    r1=  [P_IOA_Buffer]
0000ACD4 0A 95 FF FE        	    r2= 0xfeff
0000ACD6 02 B3              	    r1= r1&r2
0000ACD7 19 D3 00 70        	    [P_IOA_Data]=r1 
0000ACD9 A8 90              	    pop r1,r5 from [sp]
0000ACDA 90 9A              	    retf;
                            	    .ENDP
                            	.public _Set_IOA8_Data1
                            	.public Set_IOA8_Data1
                            	_Set_IOA8_Data1: .PROC
                            	Set_IOA8_Data1:
0000ACDB A8 DA              	    push r1,r5 to [sp];
0000ACDC 11 93 01 70        	    r1=  [P_IOA_Buffer]
0000ACDE 0A 95 FF FE        	    r2= 0xfeff
0000ACE0 02 B3              	    r1= r1&r2
0000ACE1 0A 95 00 01        	    r2=  0x0100
0000ACE3 02 A3              	    r1=r1|r2
0000ACE4 19 D3 00 70        	    [P_IOA_Data]=r1 
0000ACE6 A8 90              	    pop r1,r5 from [sp]
0000ACE7 90 9A              	    retf;
                            	    .ENDP
                            	.public _Set_IOA9_Data0
                            	.public Set_IOA9_Data0
                            	_Set_IOA9_Data0: .PROC
                            	Set_IOA9_Data0:
0000ACE8 A8 DA              	    push r1,r5 to [sp];
0000ACE9 11 93 01 70        	    r1=  [P_IOA_Buffer]
0000ACEB 0A 95 FF FD        	    r2= 0xfdff
0000ACED 02 B3              	    r1= r1&r2
0000ACEE 19 D3 00 70        	    [P_IOA_Data]=r1 
0000ACF0 A8 90              	    pop r1,r5 from [sp]
0000ACF1 90 9A              	    retf;
                            	    .ENDP
                            	.public _Set_IOA9_Data1
                            	.public Set_IOA9_Data1
                            	_Set_IOA9_Data1: .PROC
                            	Set_IOA9_Data1:
0000ACF2 A8 DA              	    push r1,r5 to [sp];
0000ACF3 11 93 01 70        	    r1=  [P_IOA_Buffer]
0000ACF5 0A 95 FF FD        	    r2= 0xfdff
0000ACF7 02 B3              	    r1= r1&r2
0000ACF8 0A 95 00 02        	    r2=  0x0200
0000ACFA 02 A3              	    r1=r1|r2
0000ACFB 19 D3 00 70        	    [P_IOA_Data]=r1 
0000ACFD A8 90              	    pop r1,r5 from [sp]
0000ACFE 90 9A              	    retf;
                            	    .ENDP
                            	.public _Set_IOA10_Data0
                            	.public Set_IOA10_Data0
                            	_Set_IOA10_Data0: .PROC
                            	Set_IOA10_Data0:
0000ACFF A8 DA              	    push r1,r5 to [sp];
0000AD00 11 93 01 70        	    r1=  [P_IOA_Buffer]
0000AD02 0A 95 FF FB        	    r2= 0xfbff
0000AD04 02 B3              	    r1= r1&r2
0000AD05 19 D3 00 70        	    [P_IOA_Data]=r1 
0000AD07 A8 90              	    pop r1,r5 from [sp]
0000AD08 90 9A              	    retf;
                            	    .ENDP
                            	.public _Set_IOA10_Data1
                            	.public Set_IOA10_Data1
                            	_Set_IOA10_Data1: .PROC
                            	Set_IOA10_Data1:
0000AD09 A8 DA              	    push r1,r5 to [sp];
0000AD0A 11 93 01 70        	    r1=  [P_IOA_Buffer]
0000AD0C 0A 95 FF FB        	    r2= 0xfbff
0000AD0E 02 B3              	    r1= r1&r2
0000AD0F 0A 95 00 04        	    r2=  0x0400
0000AD11 02 A3              	    r1=r1|r2
0000AD12 19 D3 00 70        	    [P_IOA_Data]=r1 
0000AD14 A8 90              	    pop r1,r5 from [sp]
0000AD15 90 9A              	    retf;
                            	    .ENDP
                            	.public _Set_IOA11_Data0
                            	.public Set_IOA11_Data0
                            	_Set_IOA11_Data0: .PROC
                            	Set_IOA11_Data0:
0000AD16 A8 DA              	    push r1,r5 to [sp];
0000AD17 11 93 01 70        	    r1=  [P_IOA_Buffer]
0000AD19 0A 95 FF F7        	    r2= 0xf7ff
0000AD1B 02 B3              	    r1= r1&r2
0000AD1C 19 D3 00 70        	    [P_IOA_Data]=r1 
0000AD1E A8 90              	    pop r1,r5 from [sp]
0000AD1F 90 9A              	    retf;
                            	    .ENDP
                            	.public _Set_IOA11_Data1
                            	.public Set_IOA11_Data1
                            	_Set_IOA11_Data1: .PROC
                            	Set_IOA11_Data1:
0000AD20 A8 DA              	    push r1,r5 to [sp];
0000AD21 11 93 01 70        	    r1=  [P_IOA_Buffer]
0000AD23 0A 95 FF F7        	    r2= 0xf7ff
0000AD25 02 B3              	    r1= r1&r2
0000AD26 0A 95 00 08        	    r2=  0x0800
0000AD28 02 A3              	    r1=r1|r2
0000AD29 19 D3 00 70        	    [P_IOA_Data]=r1 
0000AD2B A8 90              	    pop r1,r5 from [sp]
0000AD2C 90 9A              	    retf;
                            	    .ENDP
                            	.public _Set_IOA12_Data0
                            	.public Set_IOA12_Data0
                            	_Set_IOA12_Data0: .PROC
                            	Set_IOA12_Data0:
0000AD2D A8 DA              	    push r1,r5 to [sp];
0000AD2E 11 93 01 70        	    r1=  [P_IOA_Buffer]
0000AD30 0A 95 FF EF        	    r2= 0xefff
0000AD32 02 B3              	    r1= r1&r2
0000AD33 19 D3 00 70        	    [P_IOA_Data]=r1 
0000AD35 A8 90              	    pop r1,r5 from [sp]
0000AD36 90 9A              	    retf;
                            	    .ENDP
                            	.public _Set_IOA12_Data1
                            	.public Set_IOA12_Data1
                            	_Set_IOA12_Data1: .PROC
                            	Set_IOA12_Data1:
0000AD37 A8 DA              	    push r1,r5 to [sp];
0000AD38 11 93 01 70        	    r1=  [P_IOA_Buffer]
0000AD3A 0A 95 FF EF        	    r2= 0xefff
0000AD3C 02 B3              	    r1= r1&r2
0000AD3D 0A 95 00 10        	    r2=  0x1000
0000AD3F 02 A3              	    r1=r1|r2
0000AD40 19 D3 00 70        	    [P_IOA_Data]=r1 
0000AD42 A8 90              	    pop r1,r5 from [sp]
0000AD43 90 9A              	    retf;
                            	    .ENDP
                            	.public _Set_IOA13_Data0
                            	.public Set_IOA13_Data0
                            	_Set_IOA13_Data0: .PROC
                            	Set_IOA13_Data0:
0000AD44 A8 DA              	    push r1,r5 to [sp];
0000AD45 11 93 01 70        	    r1=  [P_IOA_Buffer]
0000AD47 0A 95 FF DF        	    r2= 0xdfff
0000AD49 02 B3              	    r1= r1&r2
0000AD4A 19 D3 00 70        	    [P_IOA_Data]=r1 
0000AD4C A8 90              	    pop r1,r5 from [sp]
0000AD4D 90 9A              	    retf;
                            	    .ENDP
                            	.public _Set_IOA13_Data1
                            	.public Set_IOA13_Data1
                            	_Set_IOA13_Data1: .PROC
                            	Set_IOA13_Data1:
0000AD4E A8 DA              	    push r1,r5 to [sp];
0000AD4F 11 93 01 70        	    r1=  [P_IOA_Buffer]
0000AD51 0A 95 FF DF        	    r2= 0xdfff
0000AD53 02 B3              	    r1= r1&r2
0000AD54 0A 95 00 20        	    r2=  0x2000
0000AD56 02 A3              	    r1=r1|r2
0000AD57 19 D3 00 70        	    [P_IOA_Data]=r1 
0000AD59 A8 90              	    pop r1,r5 from [sp]
0000AD5A 90 9A              	    retf;
                            	    .ENDP
                            	.public _Set_IOA14_Data0
                            	.public Set_IOA14_Data0
                            	_Set_IOA14_Data0: .PROC
                            	Set_IOA14_Data0:
0000AD5B A8 DA              	    push r1,r5 to [sp];
0000AD5C 11 93 01 70        	    r1=  [P_IOA_Buffer]
0000AD5E 0A 95 FF BF        	    r2= 0xbfff
0000AD60 02 B3              	    r1= r1&r2
0000AD61 19 D3 00 70        	    [P_IOA_Data]=r1 
0000AD63 A8 90              	    pop r1,r5 from [sp]
0000AD64 90 9A              	    retf;
                            	    .ENDP
                            	.public _Set_IOA14_Data1
                            	.public Set_IOA14_Data1
                            	_Set_IOA14_Data1: .PROC
                            	Set_IOA14_Data1:
0000AD65 A8 DA              	    push r1,r5 to [sp];
0000AD66 11 93 01 70        	    r1=  [P_IOA_Buffer]
0000AD68 0A 95 FF BF        	    r2= 0xbfff
0000AD6A 02 B3              	    r1= r1&r2
0000AD6B 0A 95 00 40        	    r2=  0x4000
0000AD6D 02 A3              	    r1=r1|r2
0000AD6E 19 D3 00 70        	    [P_IOA_Data]=r1 
0000AD70 A8 90              	    pop r1,r5 from [sp]
0000AD71 90 9A              	    retf;
                            	    .ENDP
                            	.public _Set_IOA15_Data0
                            	.public Set_IOA15_Data0
                            	_Set_IOA15_Data0: .PROC
                            	Set_IOA15_Data0:
0000AD72 A8 DA              	    push r1,r5 to [sp];
0000AD73 11 93 01 70        	    r1=  [P_IOA_Buffer]
0000AD75 0A 95 FF 7F        	    r2= 0x7fff
0000AD77 02 B3              	    r1= r1&r2
0000AD78 19 D3 00 70        	    [P_IOA_Data]=r1 
0000AD7A A8 90              	    pop r1,r5 from [sp]
0000AD7B 90 9A              	    retf;
                            	    .ENDP
                            	.public _Set_IOA15_Data1
                            	.public Set_IOA15_Data1
                            	_Set_IOA15_Data1: .PROC
                            	Set_IOA15_Data1:
0000AD7C A8 DA              	    push r1,r5 to [sp];
0000AD7D 11 93 01 70        	    r1=  [P_IOA_Buffer]
0000AD7F 0A 95 FF 7F        	    r2= 0x7fff
0000AD81 02 B3              	    r1= r1&r2
0000AD82 0A 95 00 80        	    r2=  0x8000
0000AD84 02 A3              	    r1=r1|r2
0000AD85 19 D3 00 70        	    [P_IOA_Data]=r1 
0000AD87 A8 90              	    pop r1,r5 from [sp]
0000AD88 90 9A              	    retf;
                            	    .ENDP
                            	.public _Set_IOB0_Dir0
                            	.public Set_IOB0_Dir0
                            	_Set_IOB0_Dir0: .PROC
                            	Set_IOB0_Dir0:
0000AD89 A8 DA              	    push r1,r5 to [sp];
0000AD8A 11 93 07 70        	    r1=  [P_IOB_Dir]
0000AD8C 0A 95 FE FF        	    r2= 0xfffe
0000AD8E 02 B3              	    r1= r1&r2
0000AD8F 19 D3 07 70        	    [P_IOB_Dir]=r1 
0000AD91 A8 90              	    pop r1,r5 from [sp]
0000AD92 90 9A              	    retf;
                            	    .ENDP
                            	.public _Set_IOB0_Dir1
                            	.public Set_IOB0_Dir1
                            	_Set_IOB0_Dir1: .PROC
                            	Set_IOB0_Dir1:
0000AD93 A8 DA              	    push r1,r5 to [sp];
0000AD94 11 93 07 70        	    r1=  [P_IOB_Dir]
0000AD96 0A 95 FE FF        	    r2= 0xfffe
0000AD98 02 B3              	    r1= r1&r2
0000AD99 41 94              	    r2=  0x0001
0000AD9A 02 A3              	    r1=r1|r2
0000AD9B 19 D3 07 70        	    [P_IOB_Dir]=r1 
0000AD9D A8 90              	    pop r1,r5 from [sp]
0000AD9E 90 9A              	    retf;
                            	    .ENDP
                            	.public _Set_IOB1_Dir0
                            	.public Set_IOB1_Dir0
                            	_Set_IOB1_Dir0: .PROC
                            	Set_IOB1_Dir0:
0000AD9F A8 DA              	    push r1,r5 to [sp];
0000ADA0 11 93 07 70        	    r1=  [P_IOB_Dir]
0000ADA2 0A 95 FD FF        	    r2= 0xfffd
0000ADA4 02 B3              	    r1= r1&r2
0000ADA5 19 D3 07 70        	    [P_IOB_Dir]=r1 
0000ADA7 A8 90              	    pop r1,r5 from [sp]
0000ADA8 90 9A              	    retf;
                            	    .ENDP
                            	.public _Set_IOB1_Dir1
                            	.public Set_IOB1_Dir1
                            	_Set_IOB1_Dir1: .PROC
                            	Set_IOB1_Dir1:
0000ADA9 A8 DA              	    push r1,r5 to [sp];
0000ADAA 11 93 07 70        	    r1=  [P_IOB_Dir]
0000ADAC 0A 95 FD FF        	    r2= 0xfffd
0000ADAE 02 B3              	    r1= r1&r2
0000ADAF 42 94              	    r2=  0x0002
0000ADB0 02 A3              	    r1=r1|r2
0000ADB1 19 D3 07 70        	    [P_IOB_Dir]=r1 
0000ADB3 A8 90              	    pop r1,r5 from [sp]
0000ADB4 90 9A              	    retf;
                            	    .ENDP
                            	.public _Set_IOB2_Dir0
                            	.public Set_IOB2_Dir0
                            	_Set_IOB2_Dir0: .PROC
                            	Set_IOB2_Dir0:
0000ADB5 A8 DA              	    push r1,r5 to [sp];
0000ADB6 11 93 07 70        	    r1=  [P_IOB_Dir]
0000ADB8 0A 95 FB FF        	    r2= 0xfffb
0000ADBA 02 B3              	    r1= r1&r2
0000ADBB 19 D3 07 70        	    [P_IOB_Dir]=r1 
0000ADBD A8 90              	    pop r1,r5 from [sp]
0000ADBE 90 9A              	    retf;
                            	    .ENDP
                            	.public _Set_IOB2_Dir1
                            	.public Set_IOB2_Dir1
                            	_Set_IOB2_Dir1: .PROC
                            	Set_IOB2_Dir1:
0000ADBF A8 DA              	    push r1,r5 to [sp];
0000ADC0 11 93 07 70        	    r1=  [P_IOB_Dir]
0000ADC2 0A 95 FB FF        	    r2= 0xfffb
0000ADC4 02 B3              	    r1= r1&r2
0000ADC5 44 94              	    r2=  0x0004
0000ADC6 02 A3              	    r1=r1|r2
0000ADC7 19 D3 07 70        	    [P_IOB_Dir]=r1 
0000ADC9 A8 90              	    pop r1,r5 from [sp]
0000ADCA 90 9A              	    retf;
                            	    .ENDP
                            	.public _Set_IOB3_Dir0
                            	.public Set_IOB3_Dir0
                            	_Set_IOB3_Dir0: .PROC
                            	Set_IOB3_Dir0:
0000ADCB A8 DA              	    push r1,r5 to [sp];
0000ADCC 11 93 07 70        	    r1=  [P_IOB_Dir]
0000ADCE 0A 95 F7 FF        	    r2= 0xfff7
0000ADD0 02 B3              	    r1= r1&r2
0000ADD1 19 D3 07 70        	    [P_IOB_Dir]=r1 
0000ADD3 A8 90              	    pop r1,r5 from [sp]
0000ADD4 90 9A              	    retf;
                            	    .ENDP
                            	.public _Set_IOB3_Dir1
                            	.public Set_IOB3_Dir1
                            	_Set_IOB3_Dir1: .PROC
                            	Set_IOB3_Dir1:
0000ADD5 A8 DA              	    push r1,r5 to [sp];
0000ADD6 11 93 07 70        	    r1=  [P_IOB_Dir]
0000ADD8 0A 95 F7 FF        	    r2= 0xfff7
0000ADDA 02 B3              	    r1= r1&r2
0000ADDB 48 94              	    r2=  0x0008
0000ADDC 02 A3              	    r1=r1|r2
0000ADDD 19 D3 07 70        	    [P_IOB_Dir]=r1 
0000ADDF A8 90              	    pop r1,r5 from [sp]
0000ADE0 90 9A              	    retf;
                            	    .ENDP
                            	.public _Set_IOB4_Dir0
                            	.public Set_IOB4_Dir0
                            	_Set_IOB4_Dir0: .PROC
                            	Set_IOB4_Dir0:
0000ADE1 A8 DA              	    push r1,r5 to [sp];
0000ADE2 11 93 07 70        	    r1=  [P_IOB_Dir]
0000ADE4 0A 95 EF FF        	    r2= 0xffef
0000ADE6 02 B3              	    r1= r1&r2
0000ADE7 19 D3 07 70        	    [P_IOB_Dir]=r1 
0000ADE9 A8 90              	    pop r1,r5 from [sp]
0000ADEA 90 9A              	    retf;
                            	    .ENDP
                            	.public _Set_IOB4_Dir1
                            	.public Set_IOB4_Dir1
                            	_Set_IOB4_Dir1: .PROC
                            	Set_IOB4_Dir1:
0000ADEB A8 DA              	    push r1,r5 to [sp];
0000ADEC 11 93 07 70        	    r1=  [P_IOB_Dir]
0000ADEE 0A 95 EF FF        	    r2= 0xffef
0000ADF0 02 B3              	    r1= r1&r2
0000ADF1 50 94              	    r2=  0x0010
0000ADF2 02 A3              	    r1=r1|r2
0000ADF3 19 D3 07 70        	    [P_IOB_Dir]=r1 
0000ADF5 A8 90              	    pop r1,r5 from [sp]
0000ADF6 90 9A              	    retf;
                            	    .ENDP
                            	.public _Set_IOB5_Dir0
                            	.public Set_IOB5_Dir0
                            	_Set_IOB5_Dir0: .PROC
                            	Set_IOB5_Dir0:
0000ADF7 A8 DA              	    push r1,r5 to [sp];
0000ADF8 11 93 07 70        	    r1=  [P_IOB_Dir]
0000ADFA 0A 95 DF FF        	    r2= 0xffdf
0000ADFC 02 B3              	    r1= r1&r2
0000ADFD 19 D3 07 70        	    [P_IOB_Dir]=r1 
0000ADFF A8 90              	    pop r1,r5 from [sp]
0000AE00 90 9A              	    retf;
                            	    .ENDP
                            	.public _Set_IOB5_Dir1
                            	.public Set_IOB5_Dir1
                            	_Set_IOB5_Dir1: .PROC
                            	Set_IOB5_Dir1:
0000AE01 A8 DA              	    push r1,r5 to [sp];
0000AE02 11 93 07 70        	    r1=  [P_IOB_Dir]
0000AE04 0A 95 DF FF        	    r2= 0xffdf
0000AE06 02 B3              	    r1= r1&r2
0000AE07 60 94              	    r2=  0x0020
0000AE08 02 A3              	    r1=r1|r2
0000AE09 19 D3 07 70        	    [P_IOB_Dir]=r1 
0000AE0B A8 90              	    pop r1,r5 from [sp]
0000AE0C 90 9A              	    retf;
                            	    .ENDP
                            	.public _Set_IOB6_Dir0
                            	.public Set_IOB6_Dir0
                            	_Set_IOB6_Dir0: .PROC
                            	Set_IOB6_Dir0:
0000AE0D A8 DA              	    push r1,r5 to [sp];
0000AE0E 11 93 07 70        	    r1=  [P_IOB_Dir]
0000AE10 0A 95 BF FF        	    r2= 0xffbf
0000AE12 02 B3              	    r1= r1&r2
0000AE13 19 D3 07 70        	    [P_IOB_Dir]=r1 
0000AE15 A8 90              	    pop r1,r5 from [sp]
0000AE16 90 9A              	    retf;
                            	    .ENDP
                            	.public _Set_IOB6_Dir1
                            	.public Set_IOB6_Dir1
                            	_Set_IOB6_Dir1: .PROC
                            	Set_IOB6_Dir1:
0000AE17 A8 DA              	    push r1,r5 to [sp];
0000AE18 11 93 07 70        	    r1=  [P_IOB_Dir]
0000AE1A 0A 95 BF FF        	    r2= 0xffbf
0000AE1C 02 B3              	    r1= r1&r2
0000AE1D 0A 95 40 00        	    r2=  0x0040
0000AE1F 02 A3              	    r1=r1|r2
0000AE20 19 D3 07 70        	    [P_IOB_Dir]=r1 
0000AE22 A8 90              	    pop r1,r5 from [sp]
0000AE23 90 9A              	    retf;
                            	    .ENDP
                            	.public _Set_IOB7_Dir0
                            	.public Set_IOB7_Dir0
                            	_Set_IOB7_Dir0: .PROC
                            	Set_IOB7_Dir0:
0000AE24 A8 DA              	    push r1,r5 to [sp];
0000AE25 11 93 07 70        	    r1=  [P_IOB_Dir]
0000AE27 0A 95 7F FF        	    r2= 0xff7f
0000AE29 02 B3              	    r1= r1&r2
0000AE2A 19 D3 07 70        	    [P_IOB_Dir]=r1 
0000AE2C A8 90              	    pop r1,r5 from [sp]
0000AE2D 90 9A              	    retf;
                            	    .ENDP
                            	.public _Set_IOB7_Dir1
                            	.public Set_IOB7_Dir1
                            	_Set_IOB7_Dir1: .PROC
                            	Set_IOB7_Dir1:
0000AE2E A8 DA              	    push r1,r5 to [sp];
0000AE2F 11 93 07 70        	    r1=  [P_IOB_Dir]
0000AE31 0A 95 7F FF        	    r2= 0xff7f
0000AE33 02 B3              	    r1= r1&r2
0000AE34 0A 95 80 00        	    r2=  0x0080
0000AE36 02 A3              	    r1=r1|r2
0000AE37 19 D3 07 70        	    [P_IOB_Dir]=r1 
0000AE39 A8 90              	    pop r1,r5 from [sp]
0000AE3A 90 9A              	    retf;
                            	    .ENDP
                            	.public _Set_IOB8_Dir0
                            	.public Set_IOB8_Dir0
                            	_Set_IOB8_Dir0: .PROC
                            	Set_IOB8_Dir0:
0000AE3B A8 DA              	    push r1,r5 to [sp];
0000AE3C 11 93 07 70        	    r1=  [P_IOB_Dir]
0000AE3E 0A 95 FF FE        	    r2= 0xfeff
0000AE40 02 B3              	    r1= r1&r2
0000AE41 19 D3 07 70        	    [P_IOB_Dir]=r1 
0000AE43 A8 90              	    pop r1,r5 from [sp]
0000AE44 90 9A              	    retf;
                            	    .ENDP
                            	.public _Set_IOB8_Dir1
                            	.public Set_IOB8_Dir1
                            	_Set_IOB8_Dir1: .PROC
                            	Set_IOB8_Dir1:
0000AE45 A8 DA              	    push r1,r5 to [sp];
0000AE46 11 93 07 70        	    r1=  [P_IOB_Dir]
0000AE48 0A 95 FF FE        	    r2= 0xfeff
0000AE4A 02 B3              	    r1= r1&r2
0000AE4B 0A 95 00 01        	    r2=  0x0100
0000AE4D 02 A3              	    r1=r1|r2
0000AE4E 19 D3 07 70        	    [P_IOB_Dir]=r1 
0000AE50 A8 90              	    pop r1,r5 from [sp]
0000AE51 90 9A              	    retf;
                            	    .ENDP
                            	.public _Set_IOB9_Dir0
                            	.public Set_IOB9_Dir0
                            	_Set_IOB9_Dir0: .PROC
                            	Set_IOB9_Dir0:
0000AE52 A8 DA              	    push r1,r5 to [sp];
0000AE53 11 93 07 70        	    r1=  [P_IOB_Dir]
0000AE55 0A 95 FF FD        	    r2= 0xfdff
0000AE57 02 B3              	    r1= r1&r2
0000AE58 19 D3 07 70        	    [P_IOB_Dir]=r1 
0000AE5A A8 90              	    pop r1,r5 from [sp]
0000AE5B 90 9A              	    retf;
                            	    .ENDP
                            	.public _Set_IOB9_Dir1
                            	.public Set_IOB9_Dir1
                            	_Set_IOB9_Dir1: .PROC
                            	Set_IOB9_Dir1:
0000AE5C A8 DA              	    push r1,r5 to [sp];
0000AE5D 11 93 07 70        	    r1=  [P_IOB_Dir]
0000AE5F 0A 95 FF FD        	    r2= 0xfdff
0000AE61 02 B3              	    r1= r1&r2
0000AE62 0A 95 00 02        	    r2=  0x0200
0000AE64 02 A3              	    r1=r1|r2
0000AE65 19 D3 07 70        	    [P_IOB_Dir]=r1 
0000AE67 A8 90              	    pop r1,r5 from [sp]
0000AE68 90 9A              	    retf;
                            	    .ENDP
                            	.public _Set_IOB10_Dir0
                            	.public Set_IOB10_Dir0
                            	_Set_IOB10_Dir0: .PROC
                            	Set_IOB10_Dir0:
0000AE69 A8 DA              	    push r1,r5 to [sp];
0000AE6A 11 93 07 70        	    r1=  [P_IOB_Dir]
0000AE6C 0A 95 FF FB        	    r2= 0xfbff
0000AE6E 02 B3              	    r1= r1&r2
0000AE6F 19 D3 07 70        	    [P_IOB_Dir]=r1 
0000AE71 A8 90              	    pop r1,r5 from [sp]
0000AE72 90 9A              	    retf;
                            	    .ENDP
                            	.public _Set_IOB10_Dir1
                            	.public Set_IOB10_Dir1
                            	_Set_IOB10_Dir1: .PROC
                            	Set_IOB10_Dir1:
0000AE73 A8 DA              	    push r1,r5 to [sp];
0000AE74 11 93 07 70        	    r1=  [P_IOB_Dir]
0000AE76 0A 95 FF FB        	    r2= 0xfbff
0000AE78 02 B3              	    r1= r1&r2
0000AE79 0A 95 00 04        	    r2=  0x0400
0000AE7B 02 A3              	    r1=r1|r2
0000AE7C 19 D3 07 70        	    [P_IOB_Dir]=r1 
0000AE7E A8 90              	    pop r1,r5 from [sp]
0000AE7F 90 9A              	    retf;
                            	    .ENDP
                            	.public _Set_IOB11_Dir0
                            	.public Set_IOB11_Dir0
                            	_Set_IOB11_Dir0: .PROC
                            	Set_IOB11_Dir0:
0000AE80 A8 DA              	    push r1,r5 to [sp];
0000AE81 11 93 07 70        	    r1=  [P_IOB_Dir]
0000AE83 0A 95 FF F7        	    r2= 0xf7ff
0000AE85 02 B3              	    r1= r1&r2
0000AE86 19 D3 07 70        	    [P_IOB_Dir]=r1 
0000AE88 A8 90              	    pop r1,r5 from [sp]
0000AE89 90 9A              	    retf;
                            	    .ENDP
                            	.public _Set_IOB11_Dir1
                            	.public Set_IOB11_Dir1
                            	_Set_IOB11_Dir1: .PROC
                            	Set_IOB11_Dir1:
0000AE8A A8 DA              	    push r1,r5 to [sp];
0000AE8B 11 93 07 70        	    r1=  [P_IOB_Dir]
0000AE8D 0A 95 FF F7        	    r2= 0xf7ff
0000AE8F 02 B3              	    r1= r1&r2
0000AE90 0A 95 00 08        	    r2=  0x0800
0000AE92 02 A3              	    r1=r1|r2
0000AE93 19 D3 07 70        	    [P_IOB_Dir]=r1 
0000AE95 A8 90              	    pop r1,r5 from [sp]
0000AE96 90 9A              	    retf;
                            	    .ENDP
                            	.public _Set_IOB12_Dir0
                            	.public Set_IOB12_Dir0
                            	_Set_IOB12_Dir0: .PROC
                            	Set_IOB12_Dir0:
0000AE97 A8 DA              	    push r1,r5 to [sp];
0000AE98 11 93 07 70        	    r1=  [P_IOB_Dir]
0000AE9A 0A 95 FF EF        	    r2= 0xefff
0000AE9C 02 B3              	    r1= r1&r2
0000AE9D 19 D3 07 70        	    [P_IOB_Dir]=r1 
0000AE9F A8 90              	    pop r1,r5 from [sp]
0000AEA0 90 9A              	    retf;
                            	    .ENDP
                            	.public _Set_IOB12_Dir1
                            	.public Set_IOB12_Dir1
                            	_Set_IOB12_Dir1: .PROC
                            	Set_IOB12_Dir1:
0000AEA1 A8 DA              	    push r1,r5 to [sp];
0000AEA2 11 93 07 70        	    r1=  [P_IOB_Dir]
0000AEA4 0A 95 FF EF        	    r2= 0xefff
0000AEA6 02 B3              	    r1= r1&r2
0000AEA7 0A 95 00 10        	    r2=  0x1000
0000AEA9 02 A3              	    r1=r1|r2
0000AEAA 19 D3 07 70        	    [P_IOB_Dir]=r1 
0000AEAC A8 90              	    pop r1,r5 from [sp]
0000AEAD 90 9A              	    retf;
                            	    .ENDP
                            	.public _Set_IOB13_Dir0
                            	.public Set_IOB13_Dir0
                            	_Set_IOB13_Dir0: .PROC
                            	Set_IOB13_Dir0:
0000AEAE A8 DA              	    push r1,r5 to [sp];
0000AEAF 11 93 07 70        	    r1=  [P_IOB_Dir]
0000AEB1 0A 95 FF DF        	    r2= 0xdfff
0000AEB3 02 B3              	    r1= r1&r2
0000AEB4 19 D3 07 70        	    [P_IOB_Dir]=r1 
0000AEB6 A8 90              	    pop r1,r5 from [sp]
0000AEB7 90 9A              	    retf;
                            	    .ENDP
                            	.public _Set_IOB13_Dir1
                            	.public Set_IOB13_Dir1
                            	_Set_IOB13_Dir1: .PROC
                            	Set_IOB13_Dir1:
0000AEB8 A8 DA              	    push r1,r5 to [sp];
0000AEB9 11 93 07 70        	    r1=  [P_IOB_Dir]
0000AEBB 0A 95 FF DF        	    r2= 0xdfff
0000AEBD 02 B3              	    r1= r1&r2
0000AEBE 0A 95 00 20        	    r2=  0x2000
0000AEC0 02 A3              	    r1=r1|r2
0000AEC1 19 D3 07 70        	    [P_IOB_Dir]=r1 
0000AEC3 A8 90              	    pop r1,r5 from [sp]
0000AEC4 90 9A              	    retf;
                            	    .ENDP
                            	.public _Set_IOB14_Dir0
                            	.public Set_IOB14_Dir0
                            	_Set_IOB14_Dir0: .PROC
                            	Set_IOB14_Dir0:
0000AEC5 A8 DA              	    push r1,r5 to [sp];
0000AEC6 11 93 07 70        	    r1=  [P_IOB_Dir]
0000AEC8 0A 95 FF BF        	    r2= 0xbfff
0000AECA 02 B3              	    r1= r1&r2
0000AECB 19 D3 07 70        	    [P_IOB_Dir]=r1 
0000AECD A8 90              	    pop r1,r5 from [sp]
0000AECE 90 9A              	    retf;
                            	    .ENDP
                            	.public _Set_IOB14_Dir1
                            	.public Set_IOB14_Dir1
                            	_Set_IOB14_Dir1: .PROC
                            	Set_IOB14_Dir1:
0000AECF A8 DA              	    push r1,r5 to [sp];
0000AED0 11 93 07 70        	    r1=  [P_IOB_Dir]
0000AED2 0A 95 FF BF        	    r2= 0xbfff
0000AED4 02 B3              	    r1= r1&r2
0000AED5 0A 95 00 40        	    r2=  0x4000
0000AED7 02 A3              	    r1=r1|r2
0000AED8 19 D3 07 70        	    [P_IOB_Dir]=r1 
0000AEDA A8 90              	    pop r1,r5 from [sp]
0000AEDB 90 9A              	    retf;
                            	    .ENDP
                            	.public _Set_IOB15_Dir0
                            	.public Set_IOB15_Dir0
                            	_Set_IOB15_Dir0: .PROC
                            	Set_IOB15_Dir0:
0000AEDC A8 DA              	    push r1,r5 to [sp];
0000AEDD 11 93 07 70        	    r1=  [P_IOB_Dir]
0000AEDF 0A 95 FF 7F        	    r2= 0x7fff
0000AEE1 02 B3              	    r1= r1&r2
0000AEE2 19 D3 07 70        	    [P_IOB_Dir]=r1 
0000AEE4 A8 90              	    pop r1,r5 from [sp]
0000AEE5 90 9A              	    retf;
                            	    .ENDP
                            	.public _Set_IOB15_Dir1
                            	.public Set_IOB15_Dir1
                            	_Set_IOB15_Dir1: .PROC
                            	Set_IOB15_Dir1:
0000AEE6 A8 DA              	    push r1,r5 to [sp];
0000AEE7 11 93 07 70        	    r1=  [P_IOB_Dir]
0000AEE9 0A 95 FF 7F        	    r2= 0x7fff
0000AEEB 02 B3              	    r1= r1&r2
0000AEEC 0A 95 00 80        	    r2=  0x8000
0000AEEE 02 A3              	    r1=r1|r2
0000AEEF 19 D3 07 70        	    [P_IOB_Dir]=r1 
0000AEF1 A8 90              	    pop r1,r5 from [sp]
0000AEF2 90 9A              	    retf;
                            	    .ENDP
                            	.public _Set_IOB0_Attrib0
                            	.public Set_IOB0_Attrib0
                            	_Set_IOB0_Attrib0: .PROC
                            	Set_IOB0_Attrib0:
0000AEF3 A8 DA              	    push r1,r5 to [sp];
0000AEF4 11 93 08 70        	    r1=  [P_IOB_Attrib]
0000AEF6 0A 95 FE FF        	    r2= 0xfffe
0000AEF8 02 B3              	    r1= r1&r2
0000AEF9 19 D3 08 70        	    [P_IOB_Attrib]=r1 
0000AEFB A8 90              	    pop r1,r5 from [sp]
0000AEFC 90 9A              	    retf;
                            	    .ENDP
                            	.public _Set_IOB0_Attrib1
                            	.public Set_IOB0_Attrib1
                            	_Set_IOB0_Attrib1: .PROC
                            	Set_IOB0_Attrib1:
0000AEFD A8 DA              	    push r1,r5 to [sp];
0000AEFE 11 93 08 70        	    r1=  [P_IOB_Attrib]
0000AF00 0A 95 FE FF        	    r2= 0xfffe
0000AF02 02 B3              	    r1= r1&r2
0000AF03 41 94              	    r2=  0x0001
0000AF04 02 A3              	    r1=r1|r2
0000AF05 19 D3 08 70        	    [P_IOB_Attrib]=r1 
0000AF07 A8 90              	    pop r1,r5 from [sp]
0000AF08 90 9A              	    retf;
                            	    .ENDP
                            	.public _Set_IOB1_Attrib0
                            	.public Set_IOB1_Attrib0
                            	_Set_IOB1_Attrib0: .PROC
                            	Set_IOB1_Attrib0:
0000AF09 A8 DA              	    push r1,r5 to [sp];
0000AF0A 11 93 08 70        	    r1=  [P_IOB_Attrib]
0000AF0C 0A 95 FD FF        	    r2= 0xfffd
0000AF0E 02 B3              	    r1= r1&r2
0000AF0F 19 D3 08 70        	    [P_IOB_Attrib]=r1 
0000AF11 A8 90              	    pop r1,r5 from [sp]
0000AF12 90 9A              	    retf;
                            	    .ENDP
                            	.public _Set_IOB1_Attrib1
                            	.public Set_IOB1_Attrib1
                            	_Set_IOB1_Attrib1: .PROC
                            	Set_IOB1_Attrib1:
0000AF13 A8 DA              	    push r1,r5 to [sp];
0000AF14 11 93 08 70        	    r1=  [P_IOB_Attrib]
0000AF16 0A 95 FD FF        	    r2= 0xfffd
0000AF18 02 B3              	    r1= r1&r2
0000AF19 42 94              	    r2=  0x0002
0000AF1A 02 A3              	    r1=r1|r2
0000AF1B 19 D3 08 70        	    [P_IOB_Attrib]=r1 
0000AF1D A8 90              	    pop r1,r5 from [sp]
0000AF1E 90 9A              	    retf;
                            	    .ENDP
                            	.public _Set_IOB2_Attrib0
                            	.public Set_IOB2_Attrib0
                            	_Set_IOB2_Attrib0: .PROC
                            	Set_IOB2_Attrib0:
0000AF1F A8 DA              	    push r1,r5 to [sp];
0000AF20 11 93 08 70        	    r1=  [P_IOB_Attrib]
0000AF22 0A 95 FB FF        	    r2= 0xfffb
0000AF24 02 B3              	    r1= r1&r2
0000AF25 19 D3 08 70        	    [P_IOB_Attrib]=r1 
0000AF27 A8 90              	    pop r1,r5 from [sp]
0000AF28 90 9A              	    retf;
                            	    .ENDP
                            	.public _Set_IOB2_Attrib1
                            	.public Set_IOB2_Attrib1
                            	_Set_IOB2_Attrib1: .PROC
                            	Set_IOB2_Attrib1:
0000AF29 A8 DA              	    push r1,r5 to [sp];
0000AF2A 11 93 08 70        	    r1=  [P_IOB_Attrib]
0000AF2C 0A 95 FB FF        	    r2= 0xfffb
0000AF2E 02 B3              	    r1= r1&r2
0000AF2F 44 94              	    r2=  0x0004
0000AF30 02 A3              	    r1=r1|r2
0000AF31 19 D3 08 70        	    [P_IOB_Attrib]=r1 
0000AF33 A8 90              	    pop r1,r5 from [sp]
0000AF34 90 9A              	    retf;
                            	    .ENDP
                            	.public _Set_IOB3_Attrib0
                            	.public Set_IOB3_Attrib0
                            	_Set_IOB3_Attrib0: .PROC
                            	Set_IOB3_Attrib0:
0000AF35 A8 DA              	    push r1,r5 to [sp];
0000AF36 11 93 08 70        	    r1=  [P_IOB_Attrib]
0000AF38 0A 95 F7 FF        	    r2= 0xfff7
0000AF3A 02 B3              	    r1= r1&r2
0000AF3B 19 D3 08 70        	    [P_IOB_Attrib]=r1 
0000AF3D A8 90              	    pop r1,r5 from [sp]
0000AF3E 90 9A              	    retf;
                            	    .ENDP
                            	.public _Set_IOB3_Attrib1
                            	.public Set_IOB3_Attrib1
                            	_Set_IOB3_Attrib1: .PROC
                            	Set_IOB3_Attrib1:
0000AF3F A8 DA              	    push r1,r5 to [sp];
0000AF40 11 93 08 70        	    r1=  [P_IOB_Attrib]
0000AF42 0A 95 F7 FF        	    r2= 0xfff7
0000AF44 02 B3              	    r1= r1&r2
0000AF45 48 94              	    r2=  0x0008
0000AF46 02 A3              	    r1=r1|r2
0000AF47 19 D3 08 70        	    [P_IOB_Attrib]=r1 
0000AF49 A8 90              	    pop r1,r5 from [sp]
0000AF4A 90 9A              	    retf;
                            	    .ENDP
                            	.public _Set_IOB4_Attrib0
                            	.public Set_IOB4_Attrib0
                            	_Set_IOB4_Attrib0: .PROC
                            	Set_IOB4_Attrib0:
0000AF4B A8 DA              	    push r1,r5 to [sp];
0000AF4C 11 93 08 70        	    r1=  [P_IOB_Attrib]
0000AF4E 0A 95 EF FF        	    r2= 0xffef
0000AF50 02 B3              	    r1= r1&r2
0000AF51 19 D3 08 70        	    [P_IOB_Attrib]=r1 
0000AF53 A8 90              	    pop r1,r5 from [sp]
0000AF54 90 9A              	    retf;
                            	    .ENDP
                            	.public _Set_IOB4_Attrib1
                            	.public Set_IOB4_Attrib1
                            	_Set_IOB4_Attrib1: .PROC
                            	Set_IOB4_Attrib1:
0000AF55 A8 DA              	    push r1,r5 to [sp];
0000AF56 11 93 08 70        	    r1=  [P_IOB_Attrib]
0000AF58 0A 95 EF FF        	    r2= 0xffef
0000AF5A 02 B3              	    r1= r1&r2
0000AF5B 50 94              	    r2=  0x0010
0000AF5C 02 A3              	    r1=r1|r2
0000AF5D 19 D3 08 70        	    [P_IOB_Attrib]=r1 
0000AF5F A8 90              	    pop r1,r5 from [sp]
0000AF60 90 9A              	    retf;
                            	    .ENDP
                            	.public _Set_IOB5_Attrib0
                            	.public Set_IOB5_Attrib0
                            	_Set_IOB5_Attrib0: .PROC
                            	Set_IOB5_Attrib0:
0000AF61 A8 DA              	    push r1,r5 to [sp];
0000AF62 11 93 08 70        	    r1=  [P_IOB_Attrib]
0000AF64 0A 95 DF FF        	    r2= 0xffdf
0000AF66 02 B3              	    r1= r1&r2
0000AF67 19 D3 08 70        	    [P_IOB_Attrib]=r1 
0000AF69 A8 90              	    pop r1,r5 from [sp]
0000AF6A 90 9A              	    retf;
                            	    .ENDP
                            	.public _Set_IOB5_Attrib1
                            	.public Set_IOB5_Attrib1
                            	_Set_IOB5_Attrib1: .PROC
                            	Set_IOB5_Attrib1:
0000AF6B A8 DA              	    push r1,r5 to [sp];
0000AF6C 11 93 08 70        	    r1=  [P_IOB_Attrib]
0000AF6E 0A 95 DF FF        	    r2= 0xffdf
0000AF70 02 B3              	    r1= r1&r2
0000AF71 60 94              	    r2=  0x0020
0000AF72 02 A3              	    r1=r1|r2
0000AF73 19 D3 08 70        	    [P_IOB_Attrib]=r1 
0000AF75 A8 90              	    pop r1,r5 from [sp]
0000AF76 90 9A              	    retf;
                            	    .ENDP
                            	.public _Set_IOB6_Attrib0
                            	.public Set_IOB6_Attrib0
                            	_Set_IOB6_Attrib0: .PROC
                            	Set_IOB6_Attrib0:
0000AF77 A8 DA              	    push r1,r5 to [sp];
0000AF78 11 93 08 70        	    r1=  [P_IOB_Attrib]
0000AF7A 0A 95 BF FF        	    r2= 0xffbf
0000AF7C 02 B3              	    r1= r1&r2
0000AF7D 19 D3 08 70        	    [P_IOB_Attrib]=r1 
0000AF7F A8 90              	    pop r1,r5 from [sp]
0000AF80 90 9A              	    retf;
                            	    .ENDP
                            	.public _Set_IOB6_Attrib1
                            	.public Set_IOB6_Attrib1
                            	_Set_IOB6_Attrib1: .PROC
                            	Set_IOB6_Attrib1:
0000AF81 A8 DA              	    push r1,r5 to [sp];
0000AF82 11 93 08 70        	    r1=  [P_IOB_Attrib]
0000AF84 0A 95 BF FF        	    r2= 0xffbf
0000AF86 02 B3              	    r1= r1&r2
0000AF87 0A 95 40 00        	    r2=  0x0040
0000AF89 02 A3              	    r1=r1|r2
0000AF8A 19 D3 08 70        	    [P_IOB_Attrib]=r1 
0000AF8C A8 90              	    pop r1,r5 from [sp]
0000AF8D 90 9A              	    retf;
                            	    .ENDP
                            	.public _Set_IOB7_Attrib0
                            	.public Set_IOB7_Attrib0
                            	_Set_IOB7_Attrib0: .PROC
                            	Set_IOB7_Attrib0:
0000AF8E A8 DA              	    push r1,r5 to [sp];
0000AF8F 11 93 08 70        	    r1=  [P_IOB_Attrib]
0000AF91 0A 95 7F FF        	    r2= 0xff7f
0000AF93 02 B3              	    r1= r1&r2
0000AF94 19 D3 08 70        	    [P_IOB_Attrib]=r1 
0000AF96 A8 90              	    pop r1,r5 from [sp]
0000AF97 90 9A              	    retf;
                            	    .ENDP
                            	.public _Set_IOB7_Attrib1
                            	.public Set_IOB7_Attrib1
                            	_Set_IOB7_Attrib1: .PROC
                            	Set_IOB7_Attrib1:
0000AF98 A8 DA              	    push r1,r5 to [sp];
0000AF99 11 93 08 70        	    r1=  [P_IOB_Attrib]
0000AF9B 0A 95 7F FF        	    r2= 0xff7f
0000AF9D 02 B3              	    r1= r1&r2
0000AF9E 0A 95 80 00        	    r2=  0x0080
0000AFA0 02 A3              	    r1=r1|r2
0000AFA1 19 D3 08 70        	    [P_IOB_Attrib]=r1 
0000AFA3 A8 90              	    pop r1,r5 from [sp]
0000AFA4 90 9A              	    retf;
                            	    .ENDP
                            	.public _Set_IOB8_Attrib0
                            	.public Set_IOB8_Attrib0
                            	_Set_IOB8_Attrib0: .PROC
                            	Set_IOB8_Attrib0:
0000AFA5 A8 DA              	    push r1,r5 to [sp];
0000AFA6 11 93 08 70        	    r1=  [P_IOB_Attrib]
0000AFA8 0A 95 FF FE        	    r2= 0xfeff
0000AFAA 02 B3              	    r1= r1&r2
0000AFAB 19 D3 08 70        	    [P_IOB_Attrib]=r1 
0000AFAD A8 90              	    pop r1,r5 from [sp]
0000AFAE 90 9A              	    retf;
                            	    .ENDP
                            	.public _Set_IOB8_Attrib1
                            	.public Set_IOB8_Attrib1
                            	_Set_IOB8_Attrib1: .PROC
                            	Set_IOB8_Attrib1:
0000AFAF A8 DA              	    push r1,r5 to [sp];
0000AFB0 11 93 08 70        	    r1=  [P_IOB_Attrib]
0000AFB2 0A 95 FF FE        	    r2= 0xfeff
0000AFB4 02 B3              	    r1= r1&r2
0000AFB5 0A 95 00 01        	    r2=  0x0100
0000AFB7 02 A3              	    r1=r1|r2
0000AFB8 19 D3 08 70        	    [P_IOB_Attrib]=r1 
0000AFBA A8 90              	    pop r1,r5 from [sp]
0000AFBB 90 9A              	    retf;
                            	    .ENDP
                            	.public _Set_IOB9_Attrib0
                            	.public Set_IOB9_Attrib0
                            	_Set_IOB9_Attrib0: .PROC
                            	Set_IOB9_Attrib0:
0000AFBC A8 DA              	    push r1,r5 to [sp];
0000AFBD 11 93 08 70        	    r1=  [P_IOB_Attrib]
0000AFBF 0A 95 FF FD        	    r2= 0xfdff
0000AFC1 02 B3              	    r1= r1&r2
0000AFC2 19 D3 08 70        	    [P_IOB_Attrib]=r1 
0000AFC4 A8 90              	    pop r1,r5 from [sp]
0000AFC5 90 9A              	    retf;
                            	    .ENDP
                            	.public _Set_IOB9_Attrib1
                            	.public Set_IOB9_Attrib1
                            	_Set_IOB9_Attrib1: .PROC
                            	Set_IOB9_Attrib1:
0000AFC6 A8 DA              	    push r1,r5 to [sp];
0000AFC7 11 93 08 70        	    r1=  [P_IOB_Attrib]
0000AFC9 0A 95 FF FD        	    r2= 0xfdff
0000AFCB 02 B3              	    r1= r1&r2
0000AFCC 0A 95 00 02        	    r2=  0x0200
0000AFCE 02 A3              	    r1=r1|r2
0000AFCF 19 D3 08 70        	    [P_IOB_Attrib]=r1 
0000AFD1 A8 90              	    pop r1,r5 from [sp]
0000AFD2 90 9A              	    retf;
                            	    .ENDP
                            	.public _Set_IOB10_Attrib0
                            	.public Set_IOB10_Attrib0
                            	_Set_IOB10_Attrib0: .PROC
                            	Set_IOB10_Attrib0:
0000AFD3 A8 DA              	    push r1,r5 to [sp];
0000AFD4 11 93 08 70        	    r1=  [P_IOB_Attrib]
0000AFD6 0A 95 FF FB        	    r2= 0xfbff
0000AFD8 02 B3              	    r1= r1&r2
0000AFD9 19 D3 08 70        	    [P_IOB_Attrib]=r1 
0000AFDB A8 90              	    pop r1,r5 from [sp]
0000AFDC 90 9A              	    retf;
                            	    .ENDP
                            	.public _Set_IOB10_Attrib1
                            	.public Set_IOB10_Attrib1
                            	_Set_IOB10_Attrib1: .PROC
                            	Set_IOB10_Attrib1:
0000AFDD A8 DA              	    push r1,r5 to [sp];
0000AFDE 11 93 08 70        	    r1=  [P_IOB_Attrib]
0000AFE0 0A 95 FF FB        	    r2= 0xfbff
0000AFE2 02 B3              	    r1= r1&r2
0000AFE3 0A 95 00 04        	    r2=  0x0400
0000AFE5 02 A3              	    r1=r1|r2
0000AFE6 19 D3 08 70        	    [P_IOB_Attrib]=r1 
0000AFE8 A8 90              	    pop r1,r5 from [sp]
0000AFE9 90 9A              	    retf;
                            	    .ENDP
                            	.public _Set_IOB11_Attrib0
                            	.public Set_IOB11_Attrib0
                            	_Set_IOB11_Attrib0: .PROC
                            	Set_IOB11_Attrib0:
0000AFEA A8 DA              	    push r1,r5 to [sp];
0000AFEB 11 93 08 70        	    r1=  [P_IOB_Attrib]
0000AFED 0A 95 FF F7        	    r2= 0xf7ff
0000AFEF 02 B3              	    r1= r1&r2
0000AFF0 19 D3 08 70        	    [P_IOB_Attrib]=r1 
0000AFF2 A8 90              	    pop r1,r5 from [sp]
0000AFF3 90 9A              	    retf;
                            	    .ENDP
                            	.public _Set_IOB11_Attrib1
                            	.public Set_IOB11_Attrib1
                            	_Set_IOB11_Attrib1: .PROC
                            	Set_IOB11_Attrib1:
0000AFF4 A8 DA              	    push r1,r5 to [sp];
0000AFF5 11 93 08 70        	    r1=  [P_IOB_Attrib]
0000AFF7 0A 95 FF F7        	    r2= 0xf7ff
0000AFF9 02 B3              	    r1= r1&r2
0000AFFA 0A 95 00 08        	    r2=  0x0800
0000AFFC 02 A3              	    r1=r1|r2
0000AFFD 19 D3 08 70        	    [P_IOB_Attrib]=r1 
0000AFFF A8 90              	    pop r1,r5 from [sp]
0000B000 90 9A              	    retf;
                            	    .ENDP
                            	.public _Set_IOB12_Attrib0
                            	.public Set_IOB12_Attrib0
                            	_Set_IOB12_Attrib0: .PROC
                            	Set_IOB12_Attrib0:
0000B001 A8 DA              	    push r1,r5 to [sp];
0000B002 11 93 08 70        	    r1=  [P_IOB_Attrib]
0000B004 0A 95 FF EF        	    r2= 0xefff
0000B006 02 B3              	    r1= r1&r2
0000B007 19 D3 08 70        	    [P_IOB_Attrib]=r1 
0000B009 A8 90              	    pop r1,r5 from [sp]
0000B00A 90 9A              	    retf;
                            	    .ENDP
                            	.public _Set_IOB12_Attrib1
                            	.public Set_IOB12_Attrib1
                            	_Set_IOB12_Attrib1: .PROC
                            	Set_IOB12_Attrib1:
0000B00B A8 DA              	    push r1,r5 to [sp];
0000B00C 11 93 08 70        	    r1=  [P_IOB_Attrib]
0000B00E 0A 95 FF EF        	    r2= 0xefff
0000B010 02 B3              	    r1= r1&r2
0000B011 0A 95 00 10        	    r2=  0x1000
0000B013 02 A3              	    r1=r1|r2
0000B014 19 D3 08 70        	    [P_IOB_Attrib]=r1 
0000B016 A8 90              	    pop r1,r5 from [sp]
0000B017 90 9A              	    retf;
                            	    .ENDP
                            	.public _Set_IOB13_Attrib0
                            	.public Set_IOB13_Attrib0
                            	_Set_IOB13_Attrib0: .PROC
                            	Set_IOB13_Attrib0:
0000B018 A8 DA              	    push r1,r5 to [sp];
0000B019 11 93 08 70        	    r1=  [P_IOB_Attrib]
0000B01B 0A 95 FF DF        	    r2= 0xdfff
0000B01D 02 B3              	    r1= r1&r2
0000B01E 19 D3 08 70        	    [P_IOB_Attrib]=r1 
0000B020 A8 90              	    pop r1,r5 from [sp]
0000B021 90 9A              	    retf;
                            	    .ENDP
                            	.public _Set_IOB13_Attrib1
                            	.public Set_IOB13_Attrib1
                            	_Set_IOB13_Attrib1: .PROC
                            	Set_IOB13_Attrib1:
0000B022 A8 DA              	    push r1,r5 to [sp];
0000B023 11 93 08 70        	    r1=  [P_IOB_Attrib]
0000B025 0A 95 FF DF        	    r2= 0xdfff
0000B027 02 B3              	    r1= r1&r2
0000B028 0A 95 00 20        	    r2=  0x2000
0000B02A 02 A3              	    r1=r1|r2
0000B02B 19 D3 08 70        	    [P_IOB_Attrib]=r1 
0000B02D A8 90              	    pop r1,r5 from [sp]
0000B02E 90 9A              	    retf;
                            	    .ENDP
                            	.public _Set_IOB14_Attrib0
                            	.public Set_IOB14_Attrib0
                            	_Set_IOB14_Attrib0: .PROC
                            	Set_IOB14_Attrib0:
0000B02F A8 DA              	    push r1,r5 to [sp];
0000B030 11 93 08 70        	    r1=  [P_IOB_Attrib]
0000B032 0A 95 FF BF        	    r2= 0xbfff
0000B034 02 B3              	    r1= r1&r2
0000B035 19 D3 08 70        	    [P_IOB_Attrib]=r1 
0000B037 A8 90              	    pop r1,r5 from [sp]
0000B038 90 9A              	    retf;
                            	    .ENDP
                            	.public _Set_IOB14_Attrib1
                            	.public Set_IOB14_Attrib1
                            	_Set_IOB14_Attrib1: .PROC
                            	Set_IOB14_Attrib1:
0000B039 A8 DA              	    push r1,r5 to [sp];
0000B03A 11 93 08 70        	    r1=  [P_IOB_Attrib]
0000B03C 0A 95 FF BF        	    r2= 0xbfff
0000B03E 02 B3              	    r1= r1&r2
0000B03F 0A 95 00 40        	    r2=  0x4000
0000B041 02 A3              	    r1=r1|r2
0000B042 19 D3 08 70        	    [P_IOB_Attrib]=r1 
0000B044 A8 90              	    pop r1,r5 from [sp]
0000B045 90 9A              	    retf;
                            	    .ENDP
                            	.public _Set_IOB15_Attrib0
                            	.public Set_IOB15_Attrib0
                            	_Set_IOB15_Attrib0: .PROC
                            	Set_IOB15_Attrib0:
0000B046 A8 DA              	    push r1,r5 to [sp];
0000B047 11 93 08 70        	    r1=  [P_IOB_Attrib]
0000B049 0A 95 FF 7F        	    r2= 0x7fff
0000B04B 02 B3              	    r1= r1&r2
0000B04C 19 D3 08 70        	    [P_IOB_Attrib]=r1 
0000B04E A8 90              	    pop r1,r5 from [sp]
0000B04F 90 9A              	    retf;
                            	    .ENDP
                            	.public _Set_IOB15_Attrib1
                            	.public Set_IOB15_Attrib1
                            	_Set_IOB15_Attrib1: .PROC
                            	Set_IOB15_Attrib1:
0000B050 A8 DA              	    push r1,r5 to [sp];
0000B051 11 93 08 70        	    r1=  [P_IOB_Attrib]
0000B053 0A 95 FF 7F        	    r2= 0x7fff
0000B055 02 B3              	    r1= r1&r2
0000B056 0A 95 00 80        	    r2=  0x8000
0000B058 02 A3              	    r1=r1|r2
0000B059 19 D3 08 70        	    [P_IOB_Attrib]=r1 
0000B05B A8 90              	    pop r1,r5 from [sp]
0000B05C 90 9A              	    retf;
                            	    .ENDP
                            	.public _Set_IOB0_Buffer0
                            	.public Set_IOB0_Buffer0
                            	_Set_IOB0_Buffer0: .PROC
                            	Set_IOB0_Buffer0:
0000B05D A8 DA              	    push r1,r5 to [sp];
0000B05E 11 93 06 70        	    r1=  [P_IOB_Buffer]
0000B060 0A 95 FE FF        	    r2= 0xfffe
0000B062 02 B3              	    r1= r1&r2
0000B063 19 D3 06 70        	    [P_IOB_Buffer]=r1 
0000B065 A8 90              	    pop r1,r5 from [sp]
0000B066 90 9A              	    retf;
                            	    .ENDP
                            	.public _Set_IOB0_Buffer1
                            	.public Set_IOB0_Buffer1
                            	_Set_IOB0_Buffer1: .PROC
                            	Set_IOB0_Buffer1:
0000B067 A8 DA              	    push r1,r5 to [sp];
0000B068 11 93 06 70        	    r1=  [P_IOB_Buffer]
0000B06A 0A 95 FE FF        	    r2= 0xfffe
0000B06C 02 B3              	    r1= r1&r2
0000B06D 41 94              	    r2=  0x0001
0000B06E 02 A3              	    r1=r1|r2
0000B06F 19 D3 06 70        	    [P_IOB_Buffer]=r1 
0000B071 A8 90              	    pop r1,r5 from [sp]
0000B072 90 9A              	    retf;
                            	    .ENDP
                            	.public _Set_IOB1_Buffer0
                            	.public Set_IOB1_Buffer0
                            	_Set_IOB1_Buffer0: .PROC
                            	Set_IOB1_Buffer0:
0000B073 A8 DA              	    push r1,r5 to [sp];
0000B074 11 93 06 70        	    r1=  [P_IOB_Buffer]
0000B076 0A 95 FD FF        	    r2= 0xfffd
0000B078 02 B3              	    r1= r1&r2
0000B079 19 D3 06 70        	    [P_IOB_Buffer]=r1 
0000B07B A8 90              	    pop r1,r5 from [sp]
0000B07C 90 9A              	    retf;
                            	    .ENDP
                            	.public _Set_IOB1_Buffer1
                            	.public Set_IOB1_Buffer1
                            	_Set_IOB1_Buffer1: .PROC
                            	Set_IOB1_Buffer1:
0000B07D A8 DA              	    push r1,r5 to [sp];
0000B07E 11 93 06 70        	    r1=  [P_IOB_Buffer]
0000B080 0A 95 FD FF        	    r2= 0xfffd
0000B082 02 B3              	    r1= r1&r2
0000B083 42 94              	    r2=  0x0002
0000B084 02 A3              	    r1=r1|r2
0000B085 19 D3 06 70        	    [P_IOB_Buffer]=r1 
0000B087 A8 90              	    pop r1,r5 from [sp]
0000B088 90 9A              	    retf;
                            	    .ENDP
                            	.public _Set_IOB2_Buffer0
                            	.public Set_IOB2_Buffer0
                            	_Set_IOB2_Buffer0: .PROC
                            	Set_IOB2_Buffer0:
0000B089 A8 DA              	    push r1,r5 to [sp];
0000B08A 11 93 06 70        	    r1=  [P_IOB_Buffer]
0000B08C 0A 95 FB FF        	    r2= 0xfffb
0000B08E 02 B3              	    r1= r1&r2
0000B08F 19 D3 06 70        	    [P_IOB_Buffer]=r1 
0000B091 A8 90              	    pop r1,r5 from [sp]
0000B092 90 9A              	    retf;
                            	    .ENDP
                            	.public _Set_IOB2_Buffer1
                            	.public Set_IOB2_Buffer1
                            	_Set_IOB2_Buffer1: .PROC
                            	Set_IOB2_Buffer1:
0000B093 A8 DA              	    push r1,r5 to [sp];
0000B094 11 93 06 70        	    r1=  [P_IOB_Buffer]
0000B096 0A 95 FB FF        	    r2= 0xfffb
0000B098 02 B3              	    r1= r1&r2
0000B099 44 94              	    r2=  0x0004
0000B09A 02 A3              	    r1=r1|r2
0000B09B 19 D3 06 70        	    [P_IOB_Buffer]=r1 
0000B09D A8 90              	    pop r1,r5 from [sp]
0000B09E 90 9A              	    retf;
                            	    .ENDP
                            	.public _Set_IOB3_Buffer0
                            	.public Set_IOB3_Buffer0
                            	_Set_IOB3_Buffer0: .PROC
                            	Set_IOB3_Buffer0:
0000B09F A8 DA              	    push r1,r5 to [sp];
0000B0A0 11 93 06 70        	    r1=  [P_IOB_Buffer]
0000B0A2 0A 95 F7 FF        	    r2= 0xfff7
0000B0A4 02 B3              	    r1= r1&r2
0000B0A5 19 D3 06 70        	    [P_IOB_Buffer]=r1 
0000B0A7 A8 90              	    pop r1,r5 from [sp]
0000B0A8 90 9A              	    retf;
                            	    .ENDP
                            	.public _Set_IOB3_Buffer1
                            	.public Set_IOB3_Buffer1
                            	_Set_IOB3_Buffer1: .PROC
                            	Set_IOB3_Buffer1:
0000B0A9 A8 DA              	    push r1,r5 to [sp];
0000B0AA 11 93 06 70        	    r1=  [P_IOB_Buffer]
0000B0AC 0A 95 F7 FF        	    r2= 0xfff7
0000B0AE 02 B3              	    r1= r1&r2
0000B0AF 48 94              	    r2=  0x0008
0000B0B0 02 A3              	    r1=r1|r2
0000B0B1 19 D3 06 70        	    [P_IOB_Buffer]=r1 
0000B0B3 A8 90              	    pop r1,r5 from [sp]
0000B0B4 90 9A              	    retf;
                            	    .ENDP
                            	.public _Set_IOB4_Buffer0
                            	.public Set_IOB4_Buffer0
                            	_Set_IOB4_Buffer0: .PROC
                            	Set_IOB4_Buffer0:
0000B0B5 A8 DA              	    push r1,r5 to [sp];
0000B0B6 11 93 06 70        	    r1=  [P_IOB_Buffer]
0000B0B8 0A 95 EF FF        	    r2= 0xffef
0000B0BA 02 B3              	    r1= r1&r2
0000B0BB 19 D3 06 70        	    [P_IOB_Buffer]=r1 
0000B0BD A8 90              	    pop r1,r5 from [sp]
0000B0BE 90 9A              	    retf;
                            	    .ENDP
                            	.public _Set_IOB4_Buffer1
                            	.public Set_IOB4_Buffer1
                            	_Set_IOB4_Buffer1: .PROC
                            	Set_IOB4_Buffer1:
0000B0BF A8 DA              	    push r1,r5 to [sp];
0000B0C0 11 93 06 70        	    r1=  [P_IOB_Buffer]
0000B0C2 0A 95 EF FF        	    r2= 0xffef
0000B0C4 02 B3              	    r1= r1&r2
0000B0C5 50 94              	    r2=  0x0010
0000B0C6 02 A3              	    r1=r1|r2
0000B0C7 19 D3 06 70        	    [P_IOB_Buffer]=r1 
0000B0C9 A8 90              	    pop r1,r5 from [sp]
0000B0CA 90 9A              	    retf;
                            	    .ENDP
                            	.public _Set_IOB5_Buffer0
                            	.public Set_IOB5_Buffer0
                            	_Set_IOB5_Buffer0: .PROC
                            	Set_IOB5_Buffer0:
0000B0CB A8 DA              	    push r1,r5 to [sp];
0000B0CC 11 93 06 70        	    r1=  [P_IOB_Buffer]
0000B0CE 0A 95 DF FF        	    r2= 0xffdf
0000B0D0 02 B3              	    r1= r1&r2
0000B0D1 19 D3 06 70        	    [P_IOB_Buffer]=r1 
0000B0D3 A8 90              	    pop r1,r5 from [sp]
0000B0D4 90 9A              	    retf;
                            	    .ENDP
                            	.public _Set_IOB5_Buffer1
                            	.public Set_IOB5_Buffer1
                            	_Set_IOB5_Buffer1: .PROC
                            	Set_IOB5_Buffer1:
0000B0D5 A8 DA              	    push r1,r5 to [sp];
0000B0D6 11 93 06 70        	    r1=  [P_IOB_Buffer]
0000B0D8 0A 95 DF FF        	    r2= 0xffdf
0000B0DA 02 B3              	    r1= r1&r2
0000B0DB 60 94              	    r2=  0x0020
0000B0DC 02 A3              	    r1=r1|r2
0000B0DD 19 D3 06 70        	    [P_IOB_Buffer]=r1 
0000B0DF A8 90              	    pop r1,r5 from [sp]
0000B0E0 90 9A              	    retf;
                            	    .ENDP
                            	.public _Set_IOB6_Buffer0
                            	.public Set_IOB6_Buffer0
                            	_Set_IOB6_Buffer0: .PROC
                            	Set_IOB6_Buffer0:
0000B0E1 A8 DA              	    push r1,r5 to [sp];
0000B0E2 11 93 06 70        	    r1=  [P_IOB_Buffer]
0000B0E4 0A 95 BF FF        	    r2= 0xffbf
0000B0E6 02 B3              	    r1= r1&r2
0000B0E7 19 D3 06 70        	    [P_IOB_Buffer]=r1 
0000B0E9 A8 90              	    pop r1,r5 from [sp]
0000B0EA 90 9A              	    retf;
                            	    .ENDP
                            	.public _Set_IOB6_Buffer1
                            	.public Set_IOB6_Buffer1
                            	_Set_IOB6_Buffer1: .PROC
                            	Set_IOB6_Buffer1:
0000B0EB A8 DA              	    push r1,r5 to [sp];
0000B0EC 11 93 06 70        	    r1=  [P_IOB_Buffer]
0000B0EE 0A 95 BF FF        	    r2= 0xffbf
0000B0F0 02 B3              	    r1= r1&r2
0000B0F1 0A 95 40 00        	    r2=  0x0040
0000B0F3 02 A3              	    r1=r1|r2
0000B0F4 19 D3 06 70        	    [P_IOB_Buffer]=r1 
0000B0F6 A8 90              	    pop r1,r5 from [sp]
0000B0F7 90 9A              	    retf;
                            	    .ENDP
                            	.public _Set_IOB7_Buffer0
                            	.public Set_IOB7_Buffer0
                            	_Set_IOB7_Buffer0: .PROC
                            	Set_IOB7_Buffer0:
0000B0F8 A8 DA              	    push r1,r5 to [sp];
0000B0F9 11 93 06 70        	    r1=  [P_IOB_Buffer]
0000B0FB 0A 95 7F FF        	    r2= 0xff7f
0000B0FD 02 B3              	    r1= r1&r2
0000B0FE 19 D3 06 70        	    [P_IOB_Buffer]=r1 
0000B100 A8 90              	    pop r1,r5 from [sp]
0000B101 90 9A              	    retf;
                            	    .ENDP
                            	.public _Set_IOB7_Buffer1
                            	.public Set_IOB7_Buffer1
                            	_Set_IOB7_Buffer1: .PROC
                            	Set_IOB7_Buffer1:
0000B102 A8 DA              	    push r1,r5 to [sp];
0000B103 11 93 06 70        	    r1=  [P_IOB_Buffer]
0000B105 0A 95 7F FF        	    r2= 0xff7f
0000B107 02 B3              	    r1= r1&r2
0000B108 0A 95 80 00        	    r2=  0x0080
0000B10A 02 A3              	    r1=r1|r2
0000B10B 19 D3 06 70        	    [P_IOB_Buffer]=r1 
0000B10D A8 90              	    pop r1,r5 from [sp]
0000B10E 90 9A              	    retf;
                            	    .ENDP
                            	.public _Set_IOB8_Buffer0
                            	.public Set_IOB8_Buffer0
                            	_Set_IOB8_Buffer0: .PROC
                            	Set_IOB8_Buffer0:
0000B10F A8 DA              	    push r1,r5 to [sp];
0000B110 11 93 06 70        	    r1=  [P_IOB_Buffer]
0000B112 0A 95 FF FE        	    r2= 0xfeff
0000B114 02 B3              	    r1= r1&r2
0000B115 19 D3 06 70        	    [P_IOB_Buffer]=r1 
0000B117 A8 90              	    pop r1,r5 from [sp]
0000B118 90 9A              	    retf;
                            	    .ENDP
                            	.public _Set_IOB8_Buffer1
                            	.public Set_IOB8_Buffer1
                            	_Set_IOB8_Buffer1: .PROC
                            	Set_IOB8_Buffer1:
0000B119 A8 DA              	    push r1,r5 to [sp];
0000B11A 11 93 06 70        	    r1=  [P_IOB_Buffer]
0000B11C 0A 95 FF FE        	    r2= 0xfeff
0000B11E 02 B3              	    r1= r1&r2
0000B11F 0A 95 00 01        	    r2=  0x0100
0000B121 02 A3              	    r1=r1|r2
0000B122 19 D3 06 70        	    [P_IOB_Buffer]=r1 
0000B124 A8 90              	    pop r1,r5 from [sp]
0000B125 90 9A              	    retf;
                            	    .ENDP
                            	.public _Set_IOB9_Buffer0
                            	.public Set_IOB9_Buffer0
                            	_Set_IOB9_Buffer0: .PROC
                            	Set_IOB9_Buffer0:
0000B126 A8 DA              	    push r1,r5 to [sp];
0000B127 11 93 06 70        	    r1=  [P_IOB_Buffer]
0000B129 0A 95 FF FD        	    r2= 0xfdff
0000B12B 02 B3              	    r1= r1&r2
0000B12C 19 D3 06 70        	    [P_IOB_Buffer]=r1 
0000B12E A8 90              	    pop r1,r5 from [sp]
0000B12F 90 9A              	    retf;
                            	    .ENDP
                            	.public _Set_IOB9_Buffer1
                            	.public Set_IOB9_Buffer1
                            	_Set_IOB9_Buffer1: .PROC
                            	Set_IOB9_Buffer1:
0000B130 A8 DA              	    push r1,r5 to [sp];
0000B131 11 93 06 70        	    r1=  [P_IOB_Buffer]
0000B133 0A 95 FF FD        	    r2= 0xfdff
0000B135 02 B3              	    r1= r1&r2
0000B136 0A 95 00 02        	    r2=  0x0200
0000B138 02 A3              	    r1=r1|r2
0000B139 19 D3 06 70        	    [P_IOB_Buffer]=r1 
0000B13B A8 90              	    pop r1,r5 from [sp]
0000B13C 90 9A              	    retf;
                            	    .ENDP
                            	.public _Set_IOB10_Buffer0
                            	.public Set_IOB10_Buffer0
                            	_Set_IOB10_Buffer0: .PROC
                            	Set_IOB10_Buffer0:
0000B13D A8 DA              	    push r1,r5 to [sp];
0000B13E 11 93 06 70        	    r1=  [P_IOB_Buffer]
0000B140 0A 95 FF FB        	    r2= 0xfbff
0000B142 02 B3              	    r1= r1&r2
0000B143 19 D3 06 70        	    [P_IOB_Buffer]=r1 
0000B145 A8 90              	    pop r1,r5 from [sp]
0000B146 90 9A              	    retf;
                            	    .ENDP
                            	.public _Set_IOB10_Buffer1
                            	.public Set_IOB10_Buffer1
                            	_Set_IOB10_Buffer1: .PROC
                            	Set_IOB10_Buffer1:
0000B147 A8 DA              	    push r1,r5 to [sp];
0000B148 11 93 06 70        	    r1=  [P_IOB_Buffer]
0000B14A 0A 95 FF FB        	    r2= 0xfbff
0000B14C 02 B3              	    r1= r1&r2
0000B14D 0A 95 00 04        	    r2=  0x0400
0000B14F 02 A3              	    r1=r1|r2
0000B150 19 D3 06 70        	    [P_IOB_Buffer]=r1 
0000B152 A8 90              	    pop r1,r5 from [sp]
0000B153 90 9A              	    retf;
                            	    .ENDP
                            	.public _Set_IOB11_Buffer0
                            	.public Set_IOB11_Buffer0
                            	_Set_IOB11_Buffer0: .PROC
                            	Set_IOB11_Buffer0:
0000B154 A8 DA              	    push r1,r5 to [sp];
0000B155 11 93 06 70        	    r1=  [P_IOB_Buffer]
0000B157 0A 95 FF F7        	    r2= 0xf7ff
0000B159 02 B3              	    r1= r1&r2
0000B15A 19 D3 06 70        	    [P_IOB_Buffer]=r1 
0000B15C A8 90              	    pop r1,r5 from [sp]
0000B15D 90 9A              	    retf;
                            	    .ENDP
                            	.public _Set_IOB11_Buffer1
                            	.public Set_IOB11_Buffer1
                            	_Set_IOB11_Buffer1: .PROC
                            	Set_IOB11_Buffer1:
0000B15E A8 DA              	    push r1,r5 to [sp];
0000B15F 11 93 06 70        	    r1=  [P_IOB_Buffer]
0000B161 0A 95 FF F7        	    r2= 0xf7ff
0000B163 02 B3              	    r1= r1&r2
0000B164 0A 95 00 08        	    r2=  0x0800
0000B166 02 A3              	    r1=r1|r2
0000B167 19 D3 06 70        	    [P_IOB_Buffer]=r1 
0000B169 A8 90              	    pop r1,r5 from [sp]
0000B16A 90 9A              	    retf;
                            	    .ENDP
                            	.public _Set_IOB12_Buffer0
                            	.public Set_IOB12_Buffer0
                            	_Set_IOB12_Buffer0: .PROC
                            	Set_IOB12_Buffer0:
0000B16B A8 DA              	    push r1,r5 to [sp];
0000B16C 11 93 06 70        	    r1=  [P_IOB_Buffer]
0000B16E 0A 95 FF EF        	    r2= 0xefff
0000B170 02 B3              	    r1= r1&r2
0000B171 19 D3 06 70        	    [P_IOB_Buffer]=r1 
0000B173 A8 90              	    pop r1,r5 from [sp]
0000B174 90 9A              	    retf;
                            	    .ENDP
                            	.public _Set_IOB12_Buffer1
                            	.public Set_IOB12_Buffer1
                            	_Set_IOB12_Buffer1: .PROC
                            	Set_IOB12_Buffer1:
0000B175 A8 DA              	    push r1,r5 to [sp];
0000B176 11 93 06 70        	    r1=  [P_IOB_Buffer]
0000B178 0A 95 FF EF        	    r2= 0xefff
0000B17A 02 B3              	    r1= r1&r2
0000B17B 0A 95 00 10        	    r2=  0x1000
0000B17D 02 A3              	    r1=r1|r2
0000B17E 19 D3 06 70        	    [P_IOB_Buffer]=r1 
0000B180 A8 90              	    pop r1,r5 from [sp]
0000B181 90 9A              	    retf;
                            	    .ENDP
                            	.public _Set_IOB13_Buffer0
                            	.public Set_IOB13_Buffer0
                            	_Set_IOB13_Buffer0: .PROC
                            	Set_IOB13_Buffer0:
0000B182 A8 DA              	    push r1,r5 to [sp];
0000B183 11 93 06 70        	    r1=  [P_IOB_Buffer]
0000B185 0A 95 FF DF        	    r2= 0xdfff
0000B187 02 B3              	    r1= r1&r2
0000B188 19 D3 06 70        	    [P_IOB_Buffer]=r1 
0000B18A A8 90              	    pop r1,r5 from [sp]
0000B18B 90 9A              	    retf;
                            	    .ENDP
                            	.public _Set_IOB13_Buffer1
                            	.public Set_IOB13_Buffer1
                            	_Set_IOB13_Buffer1: .PROC
                            	Set_IOB13_Buffer1:
0000B18C A8 DA              	    push r1,r5 to [sp];
0000B18D 11 93 06 70        	    r1=  [P_IOB_Buffer]
0000B18F 0A 95 FF DF        	    r2= 0xdfff
0000B191 02 B3              	    r1= r1&r2
0000B192 0A 95 00 20        	    r2=  0x2000
0000B194 02 A3              	    r1=r1|r2
0000B195 19 D3 06 70        	    [P_IOB_Buffer]=r1 
0000B197 A8 90              	    pop r1,r5 from [sp]
0000B198 90 9A              	    retf;
                            	    .ENDP
                            	.public _Set_IOB14_Buffer0
                            	.public Set_IOB14_Buffer0
                            	_Set_IOB14_Buffer0: .PROC
                            	Set_IOB14_Buffer0:
0000B199 A8 DA              	    push r1,r5 to [sp];
0000B19A 11 93 06 70        	    r1=  [P_IOB_Buffer]
0000B19C 0A 95 FF BF        	    r2= 0xbfff
0000B19E 02 B3              	    r1= r1&r2
0000B19F 19 D3 06 70        	    [P_IOB_Buffer]=r1 
0000B1A1 A8 90              	    pop r1,r5 from [sp]
0000B1A2 90 9A              	    retf;
                            	    .ENDP
                            	.public _Set_IOB14_Buffer1
                            	.public Set_IOB14_Buffer1
                            	_Set_IOB14_Buffer1: .PROC
                            	Set_IOB14_Buffer1:
0000B1A3 A8 DA              	    push r1,r5 to [sp];
0000B1A4 11 93 06 70        	    r1=  [P_IOB_Buffer]
0000B1A6 0A 95 FF BF        	    r2= 0xbfff
0000B1A8 02 B3              	    r1= r1&r2
0000B1A9 0A 95 00 40        	    r2=  0x4000
0000B1AB 02 A3              	    r1=r1|r2
0000B1AC 19 D3 06 70        	    [P_IOB_Buffer]=r1 
0000B1AE A8 90              	    pop r1,r5 from [sp]
0000B1AF 90 9A              	    retf;
                            	    .ENDP
                            	.public _Set_IOB15_Buffer0
                            	.public Set_IOB15_Buffer0
                            	_Set_IOB15_Buffer0: .PROC
                            	Set_IOB15_Buffer0:
0000B1B0 A8 DA              	    push r1,r5 to [sp];
0000B1B1 11 93 06 70        	    r1=  [P_IOB_Buffer]
0000B1B3 0A 95 FF 7F        	    r2= 0x7fff
0000B1B5 02 B3              	    r1= r1&r2
0000B1B6 19 D3 06 70        	    [P_IOB_Buffer]=r1 
0000B1B8 A8 90              	    pop r1,r5 from [sp]
0000B1B9 90 9A              	    retf;
                            	    .ENDP
                            	.public _Set_IOB15_Buffer1
                            	.public Set_IOB15_Buffer1
                            	_Set_IOB15_Buffer1: .PROC
                            	Set_IOB15_Buffer1:
0000B1BA A8 DA              	    push r1,r5 to [sp];
0000B1BB 11 93 06 70        	    r1=  [P_IOB_Buffer]
0000B1BD 0A 95 FF 7F        	    r2= 0x7fff
0000B1BF 02 B3              	    r1= r1&r2
0000B1C0 0A 95 00 80        	    r2=  0x8000
0000B1C2 02 A3              	    r1=r1|r2
0000B1C3 19 D3 06 70        	    [P_IOB_Buffer]=r1 
0000B1C5 A8 90              	    pop r1,r5 from [sp]
0000B1C6 90 9A              	    retf;
                            	    .ENDP
                            	.public _Set_IOB0_Data0
                            	.public Set_IOB0_Data0
                            	_Set_IOB0_Data0: .PROC
                            	Set_IOB0_Data0:
0000B1C7 A8 DA              	    push r1,r5 to [sp];
0000B1C8 11 93 06 70        	    r1=  [P_IOB_Buffer]
0000B1CA 0A 95 FE FF        	    r2= 0xfffe
0000B1CC 02 B3              	    r1= r1&r2
0000B1CD 19 D3 05 70        	    [P_IOB_Data]=r1 
0000B1CF A8 90              	    pop r1,r5 from [sp]
0000B1D0 90 9A              	    retf;
                            	    .ENDP
                            	.public _Set_IOB0_Data1
                            	.public Set_IOB0_Data1
                            	_Set_IOB0_Data1: .PROC
                            	Set_IOB0_Data1:
0000B1D1 A8 DA              	    push r1,r5 to [sp];
0000B1D2 11 93 06 70        	    r1=  [P_IOB_Buffer]
0000B1D4 0A 95 FE FF        	    r2= 0xfffe
0000B1D6 02 B3              	    r1= r1&r2
0000B1D7 41 94              	    r2=  0x0001
0000B1D8 02 A3              	    r1=r1|r2
0000B1D9 19 D3 05 70        	    [P_IOB_Data]=r1 
0000B1DB A8 90              	    pop r1,r5 from [sp]
0000B1DC 90 9A              	    retf;
                            	    .ENDP
                            	.public _Set_IOB1_Data0
                            	.public Set_IOB1_Data0
                            	_Set_IOB1_Data0: .PROC
                            	Set_IOB1_Data0:
0000B1DD A8 DA              	    push r1,r5 to [sp];
0000B1DE 11 93 06 70        	    r1=  [P_IOB_Buffer]
0000B1E0 0A 95 FD FF        	    r2= 0xfffd
0000B1E2 02 B3              	    r1= r1&r2
0000B1E3 19 D3 05 70        	    [P_IOB_Data]=r1 
0000B1E5 A8 90              	    pop r1,r5 from [sp]
0000B1E6 90 9A              	    retf;
                            	    .ENDP
                            	.public _Set_IOB1_Data1
                            	.public Set_IOB1_Data1
                            	_Set_IOB1_Data1: .PROC
                            	Set_IOB1_Data1:
0000B1E7 A8 DA              	    push r1,r5 to [sp];
0000B1E8 11 93 06 70        	    r1=  [P_IOB_Buffer]
0000B1EA 0A 95 FD FF        	    r2= 0xfffd
0000B1EC 02 B3              	    r1= r1&r2
0000B1ED 42 94              	    r2=  0x0002
0000B1EE 02 A3              	    r1=r1|r2
0000B1EF 19 D3 05 70        	    [P_IOB_Data]=r1 
0000B1F1 A8 90              	    pop r1,r5 from [sp]
0000B1F2 90 9A              	    retf;
                            	    .ENDP
                            	.public _Set_IOB2_Data0
                            	.public Set_IOB2_Data0
                            	_Set_IOB2_Data0: .PROC
                            	Set_IOB2_Data0:
0000B1F3 A8 DA              	    push r1,r5 to [sp];
0000B1F4 11 93 06 70        	    r1=  [P_IOB_Buffer]
0000B1F6 0A 95 FB FF        	    r2= 0xfffb
0000B1F8 02 B3              	    r1= r1&r2
0000B1F9 19 D3 05 70        	    [P_IOB_Data]=r1 
0000B1FB A8 90              	    pop r1,r5 from [sp]
0000B1FC 90 9A              	    retf;
                            	    .ENDP
                            	.public _Set_IOB2_Data1
                            	.public Set_IOB2_Data1
                            	_Set_IOB2_Data1: .PROC
                            	Set_IOB2_Data1:
0000B1FD A8 DA              	    push r1,r5 to [sp];
0000B1FE 11 93 06 70        	    r1=  [P_IOB_Buffer]
0000B200 0A 95 FB FF        	    r2= 0xfffb
0000B202 02 B3              	    r1= r1&r2
0000B203 44 94              	    r2=  0x0004
0000B204 02 A3              	    r1=r1|r2
0000B205 19 D3 05 70        	    [P_IOB_Data]=r1 
0000B207 A8 90              	    pop r1,r5 from [sp]
0000B208 90 9A              	    retf;
                            	    .ENDP
                            	.public _Set_IOB3_Data0
                            	.public Set_IOB3_Data0
                            	_Set_IOB3_Data0: .PROC
                            	Set_IOB3_Data0:
0000B209 A8 DA              	    push r1,r5 to [sp];
0000B20A 11 93 06 70        	    r1=  [P_IOB_Buffer]
0000B20C 0A 95 F7 FF        	    r2= 0xfff7
0000B20E 02 B3              	    r1= r1&r2
0000B20F 19 D3 05 70        	    [P_IOB_Data]=r1 
0000B211 A8 90              	    pop r1,r5 from [sp]
0000B212 90 9A              	    retf;
                            	    .ENDP
                            	.public _Set_IOB3_Data1
                            	.public Set_IOB3_Data1
                            	_Set_IOB3_Data1: .PROC
                            	Set_IOB3_Data1:
0000B213 A8 DA              	    push r1,r5 to [sp];
0000B214 11 93 06 70        	    r1=  [P_IOB_Buffer]
0000B216 0A 95 F7 FF        	    r2= 0xfff7
0000B218 02 B3              	    r1= r1&r2
0000B219 48 94              	    r2=  0x0008
0000B21A 02 A3              	    r1=r1|r2
0000B21B 19 D3 05 70        	    [P_IOB_Data]=r1 
0000B21D A8 90              	    pop r1,r5 from [sp]
0000B21E 90 9A              	    retf;
                            	    .ENDP
                            	.public _Set_IOB4_Data0
                            	.public Set_IOB4_Data0
                            	_Set_IOB4_Data0: .PROC
                            	Set_IOB4_Data0:
0000B21F A8 DA              	    push r1,r5 to [sp];
0000B220 11 93 06 70        	    r1=  [P_IOB_Buffer]
0000B222 0A 95 EF FF        	    r2= 0xffef
0000B224 02 B3              	    r1= r1&r2
0000B225 19 D3 05 70        	    [P_IOB_Data]=r1 
0000B227 A8 90              	    pop r1,r5 from [sp]
0000B228 90 9A              	    retf;
                            	    .ENDP
                            	.public _Set_IOB4_Data1
                            	.public Set_IOB4_Data1
                            	_Set_IOB4_Data1: .PROC
                            	Set_IOB4_Data1:
0000B229 A8 DA              	    push r1,r5 to [sp];
0000B22A 11 93 06 70        	    r1=  [P_IOB_Buffer]
0000B22C 0A 95 EF FF        	    r2= 0xffef
0000B22E 02 B3              	    r1= r1&r2
0000B22F 50 94              	    r2=  0x0010
0000B230 02 A3              	    r1=r1|r2
0000B231 19 D3 05 70        	    [P_IOB_Data]=r1 
0000B233 A8 90              	    pop r1,r5 from [sp]
0000B234 90 9A              	    retf;
                            	    .ENDP
                            	.public _Set_IOB5_Data0
                            	.public Set_IOB5_Data0
                            	_Set_IOB5_Data0: .PROC
                            	Set_IOB5_Data0:
0000B235 A8 DA              	    push r1,r5 to [sp];
0000B236 11 93 06 70        	    r1=  [P_IOB_Buffer]
0000B238 0A 95 DF FF        	    r2= 0xffdf
0000B23A 02 B3              	    r1= r1&r2
0000B23B 19 D3 05 70        	    [P_IOB_Data]=r1 
0000B23D A8 90              	    pop r1,r5 from [sp]
0000B23E 90 9A              	    retf;
                            	    .ENDP
                            	.public _Set_IOB5_Data1
                            	.public Set_IOB5_Data1
                            	_Set_IOB5_Data1: .PROC
                            	Set_IOB5_Data1:
0000B23F A8 DA              	    push r1,r5 to [sp];
0000B240 11 93 06 70        	    r1=  [P_IOB_Buffer]
0000B242 0A 95 DF FF        	    r2= 0xffdf
0000B244 02 B3              	    r1= r1&r2
0000B245 60 94              	    r2=  0x0020
0000B246 02 A3              	    r1=r1|r2
0000B247 19 D3 05 70        	    [P_IOB_Data]=r1 
0000B249 A8 90              	    pop r1,r5 from [sp]
0000B24A 90 9A              	    retf;
                            	    .ENDP
                            	.public _Set_IOB6_Data0
                            	.public Set_IOB6_Data0
                            	_Set_IOB6_Data0: .PROC
                            	Set_IOB6_Data0:
0000B24B A8 DA              	    push r1,r5 to [sp];
0000B24C 11 93 06 70        	    r1=  [P_IOB_Buffer]
0000B24E 0A 95 BF FF        	    r2= 0xffbf
0000B250 02 B3              	    r1= r1&r2
0000B251 19 D3 05 70        	    [P_IOB_Data]=r1 
0000B253 A8 90              	    pop r1,r5 from [sp]
0000B254 90 9A              	    retf;
                            	    .ENDP
                            	.public _Set_IOB6_Data1
                            	.public Set_IOB6_Data1
                            	_Set_IOB6_Data1: .PROC
                            	Set_IOB6_Data1:
0000B255 A8 DA              	    push r1,r5 to [sp];
0000B256 11 93 06 70        	    r1=  [P_IOB_Buffer]
0000B258 0A 95 BF FF        	    r2= 0xffbf
0000B25A 02 B3              	    r1= r1&r2
0000B25B 0A 95 40 00        	    r2=  0x0040
0000B25D 02 A3              	    r1=r1|r2
0000B25E 19 D3 05 70        	    [P_IOB_Data]=r1 
0000B260 A8 90              	    pop r1,r5 from [sp]
0000B261 90 9A              	    retf;
                            	    .ENDP
                            	.public _Set_IOB7_Data0
                            	.public Set_IOB7_Data0
                            	_Set_IOB7_Data0: .PROC
                            	Set_IOB7_Data0:
0000B262 A8 DA              	    push r1,r5 to [sp];
0000B263 11 93 06 70        	    r1=  [P_IOB_Buffer]
0000B265 0A 95 7F FF        	    r2= 0xff7f
0000B267 02 B3              	    r1= r1&r2
0000B268 19 D3 05 70        	    [P_IOB_Data]=r1 
0000B26A A8 90              	    pop r1,r5 from [sp]
0000B26B 90 9A              	    retf;
                            	    .ENDP
                            	.public _Set_IOB7_Data1
                            	.public Set_IOB7_Data1
                            	_Set_IOB7_Data1: .PROC
                            	Set_IOB7_Data1:
0000B26C A8 DA              	    push r1,r5 to [sp];
0000B26D 11 93 06 70        	    r1=  [P_IOB_Buffer]
0000B26F 0A 95 7F FF        	    r2= 0xff7f
0000B271 02 B3              	    r1= r1&r2
0000B272 0A 95 80 00        	    r2=  0x0080
0000B274 02 A3              	    r1=r1|r2
0000B275 19 D3 05 70        	    [P_IOB_Data]=r1 
0000B277 A8 90              	    pop r1,r5 from [sp]
0000B278 90 9A              	    retf;
                            	    .ENDP
                            	.public _Set_IOB8_Data0
                            	.public Set_IOB8_Data0
                            	_Set_IOB8_Data0: .PROC
                            	Set_IOB8_Data0:
0000B279 A8 DA              	    push r1,r5 to [sp];
0000B27A 11 93 06 70        	    r1=  [P_IOB_Buffer]
0000B27C 0A 95 FF FE        	    r2= 0xfeff
0000B27E 02 B3              	    r1= r1&r2
0000B27F 19 D3 05 70        	    [P_IOB_Data]=r1 
0000B281 A8 90              	    pop r1,r5 from [sp]
0000B282 90 9A              	    retf;
                            	    .ENDP
                            	.public _Set_IOB8_Data1
                            	.public Set_IOB8_Data1
                            	_Set_IOB8_Data1: .PROC
                            	Set_IOB8_Data1:
0000B283 A8 DA              	    push r1,r5 to [sp];
0000B284 11 93 06 70        	    r1=  [P_IOB_Buffer]
0000B286 0A 95 FF FE        	    r2= 0xfeff
0000B288 02 B3              	    r1= r1&r2
0000B289 0A 95 00 01        	    r2=  0x0100
0000B28B 02 A3              	    r1=r1|r2
0000B28C 19 D3 05 70        	    [P_IOB_Data]=r1 
0000B28E A8 90              	    pop r1,r5 from [sp]
0000B28F 90 9A              	    retf;
                            	    .ENDP
                            	.public _Set_IOB9_Data0
                            	.public Set_IOB9_Data0
                            	_Set_IOB9_Data0: .PROC
                            	Set_IOB9_Data0:
0000B290 A8 DA              	    push r1,r5 to [sp];
0000B291 11 93 06 70        	    r1=  [P_IOB_Buffer]
0000B293 0A 95 FF FD        	    r2= 0xfdff
0000B295 02 B3              	    r1= r1&r2
0000B296 19 D3 05 70        	    [P_IOB_Data]=r1 
0000B298 A8 90              	    pop r1,r5 from [sp]
0000B299 90 9A              	    retf;
                            	    .ENDP
                            	.public _Set_IOB9_Data1
                            	.public Set_IOB9_Data1
                            	_Set_IOB9_Data1: .PROC
                            	Set_IOB9_Data1:
0000B29A A8 DA              	    push r1,r5 to [sp];
0000B29B 11 93 06 70        	    r1=  [P_IOB_Buffer]
0000B29D 0A 95 FF FD        	    r2= 0xfdff
0000B29F 02 B3              	    r1= r1&r2
0000B2A0 0A 95 00 02        	    r2=  0x0200
0000B2A2 02 A3              	    r1=r1|r2
0000B2A3 19 D3 05 70        	    [P_IOB_Data]=r1 
0000B2A5 A8 90              	    pop r1,r5 from [sp]
0000B2A6 90 9A              	    retf;
                            	    .ENDP
                            	.public _Set_IOB10_Data0
                            	.public Set_IOB10_Data0
                            	_Set_IOB10_Data0: .PROC
                            	Set_IOB10_Data0:
0000B2A7 A8 DA              	    push r1,r5 to [sp];
0000B2A8 11 93 06 70        	    r1=  [P_IOB_Buffer]
0000B2AA 0A 95 FF FB        	    r2= 0xfbff
0000B2AC 02 B3              	    r1= r1&r2
0000B2AD 19 D3 05 70        	    [P_IOB_Data]=r1 
0000B2AF A8 90              	    pop r1,r5 from [sp]
0000B2B0 90 9A              	    retf;
                            	    .ENDP
                            	.public _Set_IOB10_Data1
                            	.public Set_IOB10_Data1
                            	_Set_IOB10_Data1: .PROC
                            	Set_IOB10_Data1:
0000B2B1 A8 DA              	    push r1,r5 to [sp];
0000B2B2 11 93 06 70        	    r1=  [P_IOB_Buffer]
0000B2B4 0A 95 FF FB        	    r2= 0xfbff
0000B2B6 02 B3              	    r1= r1&r2
0000B2B7 0A 95 00 04        	    r2=  0x0400
0000B2B9 02 A3              	    r1=r1|r2
0000B2BA 19 D3 05 70        	    [P_IOB_Data]=r1 
0000B2BC A8 90              	    pop r1,r5 from [sp]
0000B2BD 90 9A              	    retf;
                            	    .ENDP
                            	.public _Set_IOB11_Data0
                            	.public Set_IOB11_Data0
                            	_Set_IOB11_Data0: .PROC
                            	Set_IOB11_Data0:
0000B2BE A8 DA              	    push r1,r5 to [sp];
0000B2BF 11 93 06 70        	    r1=  [P_IOB_Buffer]
0000B2C1 0A 95 FF F7        	    r2= 0xf7ff
0000B2C3 02 B3              	    r1= r1&r2
0000B2C4 19 D3 05 70        	    [P_IOB_Data]=r1 
0000B2C6 A8 90              	    pop r1,r5 from [sp]
0000B2C7 90 9A              	    retf;
                            	    .ENDP
                            	.public _Set_IOB11_Data1
                            	.public Set_IOB11_Data1
                            	_Set_IOB11_Data1: .PROC
                            	Set_IOB11_Data1:
0000B2C8 A8 DA              	    push r1,r5 to [sp];
0000B2C9 11 93 06 70        	    r1=  [P_IOB_Buffer]
0000B2CB 0A 95 FF F7        	    r2= 0xf7ff
0000B2CD 02 B3              	    r1= r1&r2
0000B2CE 0A 95 00 08        	    r2=  0x0800
0000B2D0 02 A3              	    r1=r1|r2
0000B2D1 19 D3 05 70        	    [P_IOB_Data]=r1 
0000B2D3 A8 90              	    pop r1,r5 from [sp]
0000B2D4 90 9A              	    retf;
                            	    .ENDP
                            	.public _Set_IOB12_Data0
                            	.public Set_IOB12_Data0
                            	_Set_IOB12_Data0: .PROC
                            	Set_IOB12_Data0:
0000B2D5 A8 DA              	    push r1,r5 to [sp];
0000B2D6 11 93 06 70        	    r1=  [P_IOB_Buffer]
0000B2D8 0A 95 FF EF        	    r2= 0xefff
0000B2DA 02 B3              	    r1= r1&r2
0000B2DB 19 D3 05 70        	    [P_IOB_Data]=r1 
0000B2DD A8 90              	    pop r1,r5 from [sp]
0000B2DE 90 9A              	    retf;
                            	    .ENDP
                            	.public _Set_IOB12_Data1
                            	.public Set_IOB12_Data1
                            	_Set_IOB12_Data1: .PROC
                            	Set_IOB12_Data1:
0000B2DF A8 DA              	    push r1,r5 to [sp];
0000B2E0 11 93 06 70        	    r1=  [P_IOB_Buffer]
0000B2E2 0A 95 FF EF        	    r2= 0xefff
0000B2E4 02 B3              	    r1= r1&r2
0000B2E5 0A 95 00 10        	    r2=  0x1000
0000B2E7 02 A3              	    r1=r1|r2
0000B2E8 19 D3 05 70        	    [P_IOB_Data]=r1 
0000B2EA A8 90              	    pop r1,r5 from [sp]
0000B2EB 90 9A              	    retf;
                            	    .ENDP
                            	.public _Set_IOB13_Data0
                            	.public Set_IOB13_Data0
                            	_Set_IOB13_Data0: .PROC
                            	Set_IOB13_Data0:
0000B2EC A8 DA              	    push r1,r5 to [sp];
0000B2ED 11 93 06 70        	    r1=  [P_IOB_Buffer]
0000B2EF 0A 95 FF DF        	    r2= 0xdfff
0000B2F1 02 B3              	    r1= r1&r2
0000B2F2 19 D3 05 70        	    [P_IOB_Data]=r1 
0000B2F4 A8 90              	    pop r1,r5 from [sp]
0000B2F5 90 9A              	    retf;
                            	    .ENDP
                            	.public _Set_IOB13_Data1
                            	.public Set_IOB13_Data1
                            	_Set_IOB13_Data1: .PROC
                            	Set_IOB13_Data1:
0000B2F6 A8 DA              	    push r1,r5 to [sp];
0000B2F7 11 93 06 70        	    r1=  [P_IOB_Buffer]
0000B2F9 0A 95 FF DF        	    r2= 0xdfff
0000B2FB 02 B3              	    r1= r1&r2
0000B2FC 0A 95 00 20        	    r2=  0x2000
0000B2FE 02 A3              	    r1=r1|r2
0000B2FF 19 D3 05 70        	    [P_IOB_Data]=r1 
0000B301 A8 90              	    pop r1,r5 from [sp]
0000B302 90 9A              	    retf;
                            	    .ENDP
                            	.public _Set_IOB14_Data0
                            	.public Set_IOB14_Data0
                            	_Set_IOB14_Data0: .PROC
                            	Set_IOB14_Data0:
0000B303 A8 DA              	    push r1,r5 to [sp];
0000B304 11 93 06 70        	    r1=  [P_IOB_Buffer]
0000B306 0A 95 FF BF        	    r2= 0xbfff
0000B308 02 B3              	    r1= r1&r2
0000B309 19 D3 05 70        	    [P_IOB_Data]=r1 
0000B30B A8 90              	    pop r1,r5 from [sp]
0000B30C 90 9A              	    retf;
                            	    .ENDP
                            	.public _Set_IOB14_Data1
                            	.public Set_IOB14_Data1
                            	_Set_IOB14_Data1: .PROC
                            	Set_IOB14_Data1:
0000B30D A8 DA              	    push r1,r5 to [sp];
0000B30E 11 93 06 70        	    r1=  [P_IOB_Buffer]
0000B310 0A 95 FF BF        	    r2= 0xbfff
0000B312 02 B3              	    r1= r1&r2
0000B313 0A 95 00 40        	    r2=  0x4000
0000B315 02 A3              	    r1=r1|r2
0000B316 19 D3 05 70        	    [P_IOB_Data]=r1 
0000B318 A8 90              	    pop r1,r5 from [sp]
0000B319 90 9A              	    retf;
                            	    .ENDP
                            	.public _Set_IOB15_Data0
                            	.public Set_IOB15_Data0
                            	_Set_IOB15_Data0: .PROC
                            	Set_IOB15_Data0:
0000B31A A8 DA              	    push r1,r5 to [sp];
0000B31B 11 93 06 70        	    r1=  [P_IOB_Buffer]
0000B31D 0A 95 FF 7F        	    r2= 0x7fff
0000B31F 02 B3              	    r1= r1&r2
0000B320 19 D3 05 70        	    [P_IOB_Data]=r1 
0000B322 A8 90              	    pop r1,r5 from [sp]
0000B323 90 9A              	    retf;
                            	    .ENDP
                            	.public _Set_IOB15_Data1
                            	.public Set_IOB15_Data1
                            	_Set_IOB15_Data1: .PROC
                            	Set_IOB15_Data1:
0000B324 A8 DA              	    push r1,r5 to [sp];
0000B325 11 93 06 70        	    r1=  [P_IOB_Buffer]
0000B327 0A 95 FF 7F        	    r2= 0x7fff
0000B329 02 B3              	    r1= r1&r2
0000B32A 0A 95 00 80        	    r2=  0x8000
0000B32C 02 A3              	    r1=r1|r2
0000B32D 19 D3 05 70        	    [P_IOB_Data]=r1 
0000B32F A8 90              	    pop r1,r5 from [sp]
0000B330 90 9A              	    retf;
                            	    .ENDP
                            	.PUBLIC _Get_Buffer_IOA0
                            	.PUBLIC Get_Buffer_IOA0
                            	_Get_Buffer_IOA0:.PROC
                            	Get_Buffer_IOA0:
0000B331 A0 DA              	    push r2,r5 to [sp];  
0000B332 11 93 01 70        	    r1=  [P_IOA_Buffer]
0000B334 0A 95 FE FF        	    r2= 0xfffe
0000B336 02 A3              	    r1= r1|r2
0000B337 02 43              	    cmp r1,r2
0000B338 03 5E              	    je AReturnBufferA0
0000B339 41 92              	    r1=1
0000B33A A0 92              	    pop r2,r5 from [sp]
0000B33B 90 9A              	    retf;
                            	AReturnBufferA0:
0000B33C 40 92              	    r1=0 
0000B33D A0 92              	    pop r2,r5 from [sp]
0000B33E 90 9A              	    retf;
0000B33F A0 92              	    pop r2,r5 from [sp]
0000B340 90 9A              	    retf;  
                            	    .ENDP
                            	.PUBLIC _Get_Buffer_IOA1
                            	.PUBLIC Get_Buffer_IOA1
                            	_Get_Buffer_IOA1:.PROC
                            	Get_Buffer_IOA1:
0000B341 A0 DA              	    push r2,r5 to [sp];  
0000B342 11 93 01 70        	    r1=  [P_IOA_Buffer]
0000B344 0A 95 FD FF        	    r2= 0xfffd
0000B346 02 A3              	    r1= r1|r2
0000B347 02 43              	    cmp r1,r2
0000B348 03 5E              	    je AReturnBufferA1
0000B349 41 92              	    r1=1
0000B34A A0 92              	    pop r2,r5 from [sp]
0000B34B 90 9A              	    retf;
                            	AReturnBufferA1:
0000B34C 40 92              	    r1=0 
0000B34D A0 92              	    pop r2,r5 from [sp]
0000B34E 90 9A              	    retf;
0000B34F A0 92              	    pop r2,r5 from [sp]
0000B350 90 9A              	    retf;  
                            	    .ENDP
                            	.PUBLIC _Get_Buffer_IOA2
                            	.PUBLIC Get_Buffer_IOA2
                            	_Get_Buffer_IOA2:.PROC
                            	Get_Buffer_IOA2:
0000B351 A0 DA              	    push r2,r5 to [sp];  
0000B352 11 93 01 70        	    r1=  [P_IOA_Buffer]
0000B354 0A 95 FB FF        	    r2= 0xfffb
0000B356 02 A3              	    r1= r1|r2
0000B357 02 43              	    cmp r1,r2
0000B358 03 5E              	    je AReturnBufferA2
0000B359 41 92              	    r1=1
0000B35A A0 92              	    pop r2,r5 from [sp]
0000B35B 90 9A              	    retf;
                            	AReturnBufferA2:
0000B35C 40 92              	    r1=0 
0000B35D A0 92              	    pop r2,r5 from [sp]
0000B35E 90 9A              	    retf;
0000B35F A0 92              	    pop r2,r5 from [sp]
0000B360 90 9A              	    retf;  
                            	    .ENDP
                            	.PUBLIC _Get_Buffer_IOA3
                            	.PUBLIC Get_Buffer_IOA3
                            	_Get_Buffer_IOA3:.PROC
                            	Get_Buffer_IOA3:
0000B361 A0 DA              	    push r2,r5 to [sp];  
0000B362 11 93 01 70        	    r1=  [P_IOA_Buffer]
0000B364 0A 95 F7 FF        	    r2= 0xfff7
0000B366 02 A3              	    r1= r1|r2
0000B367 02 43              	    cmp r1,r2
0000B368 03 5E              	    je AReturnBufferA3
0000B369 41 92              	    r1=1
0000B36A A0 92              	    pop r2,r5 from [sp]
0000B36B 90 9A              	    retf;
                            	AReturnBufferA3:
0000B36C 40 92              	    r1=0 
0000B36D A0 92              	    pop r2,r5 from [sp]
0000B36E 90 9A              	    retf;
0000B36F A0 92              	    pop r2,r5 from [sp]
0000B370 90 9A              	    retf;  
                            	    .ENDP  
                            	.PUBLIC _Get_Buffer_IOA4
                            	.PUBLIC Get_Buffer_IOA4
                            	_Get_Buffer_IOA4:.PROC
                            	Get_Buffer_IOA4:
0000B371 A0 DA              	    push r2,r5 to [sp];  
0000B372 11 93 01 70        	    r1=  [P_IOA_Buffer]
0000B374 0A 95 EF FF        	    r2= 0xffef
0000B376 02 A3              	    r1= r1|r2
0000B377 02 43              	    cmp r1,r2
0000B378 03 5E              	    je AReturnBufferA4
0000B379 41 92              	    r1=1
0000B37A A0 92              	    pop r2,r5 from [sp]
0000B37B 90 9A              	    retf;
                            	AReturnBufferA4:
0000B37C 40 92              	    r1=0 
0000B37D A0 92              	    pop r2,r5 from [sp]
0000B37E 90 9A              	    retf;
0000B37F A0 92              	    pop r2,r5 from [sp]
0000B380 90 9A              	    retf;  
                            	    .ENDP    
                            	.PUBLIC _Get_Buffer_IOA5
                            	.PUBLIC Get_Buffer_IOA5
                            	_Get_Buffer_IOA5:.PROC
                            	Get_Buffer_IOA5:
0000B381 A0 DA              	    push r2,r5 to [sp];  
0000B382 11 93 01 70        	    r1=  [P_IOA_Buffer]
0000B384 0A 95 DF FF        	    r2= 0xffdf
0000B386 02 A3              	    r1= r1|r2
0000B387 02 43              	    cmp r1,r2
0000B388 03 5E              	    je AReturnBufferA5
0000B389 41 92              	    r1=1
0000B38A A0 92              	    pop r2,r5 from [sp]
0000B38B 90 9A              	    retf;
                            	AReturnBufferA5:
0000B38C 40 92              	    r1=0 
0000B38D A0 92              	    pop r2,r5 from [sp]
0000B38E 90 9A              	    retf;
0000B38F A0 92              	    pop r2,r5 from [sp]
0000B390 90 9A              	    retf;  
                            	    .ENDP 
                            	.PUBLIC _Get_Buffer_IOA6
                            	.PUBLIC Get_Buffer_IOA6
                            	_Get_Buffer_IOA6:.PROC
                            	Get_Buffer_IOA6:
0000B391 A0 DA              	    push r2,r5 to [sp];  
0000B392 11 93 01 70        	    r1=  [P_IOA_Buffer]
0000B394 0A 95 BF FF        	    r2= 0xffbf
0000B396 02 A3              	    r1= r1|r2
0000B397 02 43              	    cmp r1,r2
0000B398 03 5E              	    je AReturnBufferA6
0000B399 41 92              	    r1=1
0000B39A A0 92              	    pop r2,r5 from [sp]
0000B39B 90 9A              	    retf;
                            	AReturnBufferA6:
0000B39C 40 92              	    r1=0 
0000B39D A0 92              	    pop r2,r5 from [sp]
0000B39E 90 9A              	    retf;
0000B39F A0 92              	    pop r2,r5 from [sp]
0000B3A0 90 9A              	    retf;  
                            	    .ENDP   
                            	.PUBLIC _Get_Buffer_IOA7
                            	.PUBLIC Get_Buffer_IOA7
                            	_Get_Buffer_IOA7:.PROC
                            	Get_Buffer_IOA7:
0000B3A1 A0 DA              	    push r2,r5 to [sp];  
0000B3A2 11 93 01 70        	    r1=  [P_IOA_Buffer]
0000B3A4 0A 95 7F FF        	    r2= 0xff7f
0000B3A6 02 A3              	    r1= r1|r2
0000B3A7 02 43              	    cmp r1,r2
0000B3A8 03 5E              	    je AReturnBufferA7
0000B3A9 41 92              	    r1=1
0000B3AA A0 92              	    pop r2,r5 from [sp]
0000B3AB 90 9A              	    retf;
                            	AReturnBufferA7:
0000B3AC 40 92              	    r1=0 
0000B3AD A0 92              	    pop r2,r5 from [sp]
0000B3AE 90 9A              	    retf;
0000B3AF A0 92              	    pop r2,r5 from [sp]
0000B3B0 90 9A              	    retf;  
                            	    .ENDP  
                            	.PUBLIC _Get_Buffer_IOA8
                            	.PUBLIC Get_Buffer_IOA8
                            	_Get_Buffer_IOA8:.PROC
                            	Get_Buffer_IOA8:
0000B3B1 A0 DA              	    push r2,r5 to [sp];  
0000B3B2 11 93 01 70        	    r1=  [P_IOA_Buffer]
0000B3B4 0A 95 FF FE        	    r2= 0xfeff
0000B3B6 02 A3              	    r1= r1|r2
0000B3B7 02 43              	    cmp r1,r2
0000B3B8 03 5E              	    je AReturnBufferA8
0000B3B9 41 92              	    r1=1
0000B3BA A0 92              	    pop r2,r5 from [sp]
0000B3BB 90 9A              	    retf;
                            	AReturnBufferA8:
0000B3BC 40 92              	    r1=0 
0000B3BD A0 92              	    pop r2,r5 from [sp]
0000B3BE 90 9A              	    retf;
0000B3BF A0 92              	    pop r2,r5 from [sp]
0000B3C0 90 9A              	    retf;  
                            	    .ENDP
                            	.PUBLIC _Get_Buffer_IOA9
                            	.PUBLIC Get_Buffer_IOA9
                            	_Get_Buffer_IOA9:.PROC
                            	Get_Buffer_IOA9:
0000B3C1 A0 DA              	    push r2,r5 to [sp];  
0000B3C2 11 93 01 70        	    r1=  [P_IOA_Buffer]
0000B3C4 0A 95 FF FD        	    r2= 0xfdff
0000B3C6 02 A3              	    r1= r1|r2
0000B3C7 02 43              	    cmp r1,r2
0000B3C8 03 5E              	    je AReturnBufferA9
0000B3C9 41 92              	    r1=1
0000B3CA A0 92              	    pop r2,r5 from [sp]
0000B3CB 90 9A              	    retf;
                            	AReturnBufferA9:
0000B3CC 40 92              	    r1=0 
0000B3CD A0 92              	    pop r2,r5 from [sp]
0000B3CE 90 9A              	    retf;
0000B3CF A0 92              	    pop r2,r5 from [sp]
0000B3D0 90 9A              	    retf;  
                            	    .ENDP
                            	.PUBLIC _Get_Buffer_IOA10
                            	.PUBLIC Get_Buffer_IOA10
                            	_Get_Buffer_IOA10:   .PROC       
                            	Get_Buffer_IOA10:
0000B3D1 A0 DA              	    push r2,r5 to [sp];  
0000B3D2 11 93 01 70        	    r1=  [P_IOA_Buffer]
0000B3D4 0A 95 FF FB        	    r2= 0xfbff
0000B3D6 02 A3              	    r1= r1|r2
0000B3D7 02 43              	    cmp r1,r2
0000B3D8 03 5E              	    je AReturnBufferA10
0000B3D9 41 92              	    r1=1
0000B3DA A0 92              	    pop r2,r5 from [sp]
0000B3DB 90 9A              	    retf;
                            	AReturnBufferA10:
0000B3DC 40 92              	    r1=0 
0000B3DD A0 92              	    pop r2,r5 from [sp]
0000B3DE 90 9A              	    retf;
0000B3DF A0 92              	    pop r2,r5 from [sp]
0000B3E0 90 9A              	    retf;  
                            	    .ENDP
                            	.PUBLIC _Get_Buffer_IOA11
                            	.PUBLIC Get_Buffer_IOA11
                            	_Get_Buffer_IOA11: .PROC
                            	Get_Buffer_IOA11:
0000B3E1 A0 DA              	    push r2,r5 to [sp];  
0000B3E2 11 93 01 70        	    r1=  [P_IOA_Buffer]
0000B3E4 0A 95 FF F7        	    r2= 0xf7ff
0000B3E6 02 A3              	    r1= r1|r2
0000B3E7 02 43              	    cmp r1,r2
0000B3E8 03 5E              	    je AReturnBufferA11
0000B3E9 41 92              	    r1=1
0000B3EA A0 92              	    pop r2,r5 from [sp]
0000B3EB 90 9A              	    retf;
                            	AReturnBufferA11:
0000B3EC 40 92              	    r1=0 
0000B3ED A0 92              	    pop r2,r5 from [sp]
0000B3EE 90 9A              	    retf;
0000B3EF A0 92              	    pop r2,r5 from [sp]
0000B3F0 90 9A              	    retf;  
                            	    .ENDP  
                            	.PUBLIC _Get_Buffer_IOA12
                            	.PUBLIC Get_Buffer_IOA12
                            	_Get_Buffer_IOA12: .PROC
                            	Get_Buffer_IOA12:
0000B3F1 A0 DA              	    push r2,r5 to [sp];  
0000B3F2 11 93 01 70        	    r1=  [P_IOA_Buffer]
0000B3F4 0A 95 FF EF        	    r2= 0xefff
0000B3F6 02 A3              	    r1= r1|r2
0000B3F7 02 43              	    cmp r1,r2
0000B3F8 03 5E              	    je AReturnBufferA12
0000B3F9 41 92              	    r1=1
0000B3FA A0 92              	    pop r2,r5 from [sp]
0000B3FB 90 9A              	    retf;
                            	AReturnBufferA12:
0000B3FC 40 92              	    r1=0 
0000B3FD A0 92              	    pop r2,r5 from [sp]
0000B3FE 90 9A              	    retf;
0000B3FF A0 92              	    pop r2,r5 from [sp]
0000B400 90 9A              	    retf;  
                            	    .ENDP    
                            	.PUBLIC _Get_Buffer_IOA13
                            	.PUBLIC Get_Buffer_IOA13
                            	_Get_Buffer_IOA13:   .PROC 
                            	Get_Buffer_IOA13:
0000B401 A0 DA              	    push r2,r5 to [sp];  
0000B402 11 93 01 70        	    r1=  [P_IOA_Buffer]
0000B404 0A 95 FF DF        	    r2= 0xdfff
0000B406 02 A3              	    r1= r1|r2
0000B407 02 43              	    cmp r1,r2
0000B408 03 5E              	    je AReturnBufferA13
0000B409 41 92              	    r1=1
0000B40A A0 92              	    pop r2,r5 from [sp]
0000B40B 90 9A              	    retf;
                            	AReturnBufferA13:
0000B40C 40 92              	    r1=0 
0000B40D A0 92              	    pop r2,r5 from [sp]
0000B40E 90 9A              	    retf;
0000B40F A0 92              	    pop r2,r5 from [sp]
0000B410 90 9A              	    retf;  
                            	    .ENDP 
                            	.PUBLIC _Get_Buffer_IOA14
                            	.PUBLIC Get_Buffer_IOA14
                            	_Get_Buffer_IOA14:    .PROC 
                            	Get_Buffer_IOA14:
0000B411 A0 DA              	    push r2,r5 to [sp];  
0000B412 11 93 01 70        	    r1=  [P_IOA_Buffer]
0000B414 0A 95 FF BF        	    r2= 0xbfff
0000B416 02 A3              	    r1= r1|r2
0000B417 02 43              	    cmp r1,r2
0000B418 03 5E              	    je AReturnBufferA14
0000B419 41 92              	    r1=1
0000B41A A0 92              	    pop r2,r5 from [sp]
0000B41B 90 9A              	    retf;
                            	AReturnBufferA14:
0000B41C 40 92              	    r1=0 
0000B41D A0 92              	    pop r2,r5 from [sp]
0000B41E 90 9A              	    retf;
0000B41F A0 92              	    pop r2,r5 from [sp]
0000B420 90 9A              	    retf;  
                            	    .ENDP   
                            	.PUBLIC _Get_Buffer_IOA15
                            	.PUBLIC Get_Buffer_IOA15
                            	_Get_Buffer_IOA15:   .PROC 
                            	Get_Buffer_IOA15:
0000B421 A0 DA              	    push r2,r5 to [sp];  
0000B422 11 93 01 70        	    r1=  [P_IOA_Buffer]
0000B424 0A 95 7F FF        	    r2= 0xff7f
0000B426 02 A3              	    r1= r1|r2
0000B427 02 43              	    cmp r1,r2
0000B428 03 5E              	    je AReturnBufferA15
0000B429 41 92              	    r1=1
0000B42A A0 92              	    pop r2,r5 from [sp]
0000B42B 90 9A              	    retf;
                            	AReturnBufferA15:
0000B42C 40 92              	    r1=0 
0000B42D A0 92              	    pop r2,r5 from [sp]
0000B42E 90 9A              	    retf;
0000B42F A0 92              	    pop r2,r5 from [sp]
0000B430 90 9A              	    retf;  
                            	    .ENDP  
                            	.PUBLIC _Get_Data_IOA0
                            	.PUBLIC Get_Data_IOA0
                            	_Get_Data_IOA0:.PROC
                            	Get_Data_IOA0:
0000B431 A0 DA              	    push r2,r5 to [sp];  
0000B432 11 93 00 70        	    r1=  [P_IOA_Data]
0000B434 0A 95 FE FF        	    r2= 0xfffe
0000B436 02 A3              	    r1= r1|r2
0000B437 02 43              	    cmp r1,r2
0000B438 03 5E              	    je AReturnDataAA0
0000B439 41 92              	    r1=1
0000B43A A0 92              	    pop r2,r5 from [sp]
0000B43B 90 9A              	    retf;
                            	AReturnDataAA0:
0000B43C 40 92              	    r1=0 
0000B43D A0 92              	    pop r2,r5 from [sp]
0000B43E 90 9A              	    retf;
0000B43F A0 92              	    pop r2,r5 from [sp]
0000B440 90 9A              	    retf;  
                            	    .ENDP
                            	.PUBLIC _Get_Data_IOA1
                            	.PUBLIC Get_Data_IOA1
                            	_Get_Data_IOA1:.PROC
                            	Get_Data_IOA1:
0000B441 A0 DA              	    push r2,r5 to [sp];  
0000B442 11 93 00 70        	    r1=  [P_IOA_Data]
0000B444 0A 95 FD FF        	    r2= 0xfffd
0000B446 02 A3              	    r1= r1|r2
0000B447 02 43              	    cmp r1,r2
0000B448 03 5E              	    je AReturnDataAA1
0000B449 41 92              	    r1=1
0000B44A A0 92              	    pop r2,r5 from [sp]
0000B44B 90 9A              	    retf;
                            	AReturnDataAA1:
0000B44C 40 92              	    r1=0 
0000B44D A0 92              	    pop r2,r5 from [sp]
0000B44E 90 9A              	    retf;
0000B44F A0 92              	    pop r2,r5 from [sp]
0000B450 90 9A              	    retf;  
                            	    .ENDP
                            	.PUBLIC _Get_Data_IOA2
                            	.PUBLIC Get_Data_IOA2
                            	_Get_Data_IOA2:.PROC
                            	Get_Data_IOA2:
0000B451 A0 DA              	    push r2,r5 to [sp];  
0000B452 11 93 00 70        	    r1=  [P_IOA_Data]
0000B454 0A 95 FB FF        	    r2= 0xfffb
0000B456 02 A3              	    r1= r1|r2
0000B457 02 43              	    cmp r1,r2
0000B458 03 5E              	    je AReturnDataAA2
0000B459 41 92              	    r1=1
0000B45A A0 92              	    pop r2,r5 from [sp]
0000B45B 90 9A              	    retf;
                            	AReturnDataAA2:
0000B45C 40 92              	    r1=0 
0000B45D A0 92              	    pop r2,r5 from [sp]
0000B45E 90 9A              	    retf;
0000B45F A0 92              	    pop r2,r5 from [sp]
0000B460 90 9A              	    retf;  
                            	    .ENDP
                            	.PUBLIC _Get_Data_IOA3
                            	.PUBLIC Get_Data_IOA3
                            	_Get_Data_IOA3:.PROC
                            	Get_Data_IOA3:
0000B461 A0 DA              	    push r2,r5 to [sp];  
0000B462 11 93 00 70        	    r1=  [P_IOA_Data]
0000B464 0A 95 F7 FF        	    r2= 0xfff7
0000B466 02 A3              	    r1= r1|r2
0000B467 02 43              	    cmp r1,r2
0000B468 03 5E              	    je AReturnDataAA3
0000B469 41 92              	    r1=1
0000B46A A0 92              	    pop r2,r5 from [sp]
0000B46B 90 9A              	    retf;
                            	AReturnDataAA3:
0000B46C 40 92              	    r1=0 
0000B46D A0 92              	    pop r2,r5 from [sp]
0000B46E 90 9A              	    retf;
0000B46F A0 92              	    pop r2,r5 from [sp]
0000B470 90 9A              	    retf;  
                            	    .ENDP  
                            	.PUBLIC _Get_Data_IOA4
                            	.PUBLIC Get_Data_IOA4
                            	_Get_Data_IOA4:.PROC
                            	Get_Data_IOA4:
0000B471 A0 DA              	    push r2,r5 to [sp];  
0000B472 11 93 00 70        	    r1=  [P_IOA_Data]
0000B474 0A 95 EF FF        	    r2= 0xffef
0000B476 02 A3              	    r1= r1|r2
0000B477 02 43              	    cmp r1,r2
0000B478 03 5E              	    je AReturnDataAA4
0000B479 41 92              	    r1=1
0000B47A A0 92              	    pop r2,r5 from [sp]
0000B47B 90 9A              	    retf;
                            	AReturnDataAA4:
0000B47C 40 92              	    r1=0 
0000B47D A0 92              	    pop r2,r5 from [sp]
0000B47E 90 9A              	    retf;
0000B47F A0 92              	    pop r2,r5 from [sp]
0000B480 90 9A              	    retf;  
                            	    .ENDP    
                            	.PUBLIC _Get_Data_IOA5
                            	.PUBLIC Get_Data_IOA5
                            	_Get_Data_IOA5:.PROC
                            	Get_Data_IOA5:
0000B481 A0 DA              	    push r2,r5 to [sp];  
0000B482 11 93 00 70        	    r1=  [P_IOA_Data]
0000B484 0A 95 DF FF        	    r2= 0xffdf
0000B486 02 A3              	    r1= r1|r2
0000B487 02 43              	    cmp r1,r2
0000B488 03 5E              	    je AReturnDataAA5
0000B489 41 92              	    r1=1
0000B48A A0 92              	    pop r2,r5 from [sp]
0000B48B 90 9A              	    retf;
                            	AReturnDataAA5:
0000B48C 40 92              	    r1=0 
0000B48D A0 92              	    pop r2,r5 from [sp]
0000B48E 90 9A              	    retf;
0000B48F A0 92              	    pop r2,r5 from [sp]
0000B490 90 9A              	    retf;  
                            	    .ENDP 
                            	.PUBLIC _Get_Data_IOA6
                            	.PUBLIC Get_Data_IOA6
                            	_Get_Data_IOA6:.PROC
                            	Get_Data_IOA6:
0000B491 A0 DA              	    push r2,r5 to [sp];  
0000B492 11 93 00 70        	    r1=  [P_IOA_Data]
0000B494 0A 95 BF FF        	    r2= 0xffbf
0000B496 02 A3              	    r1= r1|r2
0000B497 02 43              	    cmp r1,r2
0000B498 03 5E              	    je AReturnDataAA6
0000B499 41 92              	    r1=1
0000B49A A0 92              	    pop r2,r5 from [sp]
0000B49B 90 9A              	    retf;
                            	AReturnDataAA6:
0000B49C 40 92              	    r1=0 
0000B49D A0 92              	    pop r2,r5 from [sp]
0000B49E 90 9A              	    retf;
0000B49F A0 92              	    pop r2,r5 from [sp]
0000B4A0 90 9A              	    retf;  
                            	    .ENDP   
                            	.PUBLIC _Get_Data_IOA7
                            	.PUBLIC Get_Data_IOA7
                            	_Get_Data_IOA7:.PROC
                            	Get_Data_IOA7:
0000B4A1 A0 DA              	    push r2,r5 to [sp];  
0000B4A2 11 93 00 70        	    r1=  [P_IOA_Data]
0000B4A4 0A 95 7F FF        	    r2= 0xff7f
0000B4A6 02 A3              	    r1= r1|r2
0000B4A7 02 43              	    cmp r1,r2
0000B4A8 03 5E              	    je AReturnDataAA7
0000B4A9 41 92              	    r1=1
0000B4AA A0 92              	    pop r2,r5 from [sp]
0000B4AB 90 9A              	    retf;
                            	AReturnDataAA7:
0000B4AC 40 92              	    r1=0 
0000B4AD A0 92              	    pop r2,r5 from [sp]
0000B4AE 90 9A              	    retf;
0000B4AF A0 92              	    pop r2,r5 from [sp]
0000B4B0 90 9A              	    retf;  
                            	    .ENDP  
                            	.PUBLIC _Get_Data_IOA8
                            	.PUBLIC Get_Data_IOA8
                            	_Get_Data_IOA8:.PROC
                            	Get_Data_IOA8:
0000B4B1 A0 DA              	    push r2,r5 to [sp];  
0000B4B2 11 93 00 70        	    r1=  [P_IOA_Data]
0000B4B4 0A 95 FF FE        	    r2= 0xfeff
0000B4B6 02 A3              	    r1= r1|r2
0000B4B7 02 43              	    cmp r1,r2
0000B4B8 03 5E              	    je AReturnDataAA8
0000B4B9 41 92              	    r1=1
0000B4BA A0 92              	    pop r2,r5 from [sp]
0000B4BB 90 9A              	    retf;
                            	AReturnDataAA8:
0000B4BC 40 92              	    r1=0 
0000B4BD A0 92              	    pop r2,r5 from [sp]
0000B4BE 90 9A              	    retf;
0000B4BF A0 92              	    pop r2,r5 from [sp]
0000B4C0 90 9A              	    retf;  
                            	    .ENDP
                            	.PUBLIC _Get_Data_IOA9
                            	.PUBLIC Get_Data_IOA9
                            	_Get_Data_IOA9:.PROC
                            	Get_Data_IOA9:
0000B4C1 A0 DA              	    push r2,r5 to [sp];  
0000B4C2 11 93 00 70        	    r1=  [P_IOA_Data]
0000B4C4 0A 95 FF FD        	    r2= 0xfdff
0000B4C6 02 A3              	    r1= r1|r2
0000B4C7 02 43              	    cmp r1,r2
0000B4C8 03 5E              	    je AReturnDataAA9
0000B4C9 41 92              	    r1=1
0000B4CA A0 92              	    pop r2,r5 from [sp]
0000B4CB 90 9A              	    retf;
                            	AReturnDataAA9:
0000B4CC 40 92              	    r1=0 
0000B4CD A0 92              	    pop r2,r5 from [sp]
0000B4CE 90 9A              	    retf;
0000B4CF A0 92              	    pop r2,r5 from [sp]
0000B4D0 90 9A              	    retf;  
                            	    .ENDP
                            	.PUBLIC _Get_Data_IOA10
                            	.PUBLIC Get_Data_IOA10
                            	_Get_Data_IOA10:   .PROC       
                            	Get_Data_IOA10:
0000B4D1 A0 DA              	    push r2,r5 to [sp];  
0000B4D2 11 93 00 70        	    r1=  [P_IOA_Data]
0000B4D4 0A 95 FF FB        	    r2= 0xfbff
0000B4D6 02 A3              	    r1= r1|r2
0000B4D7 02 43              	    cmp r1,r2
0000B4D8 03 5E              	    je AReturnDataAA10
0000B4D9 41 92              	    r1=1
0000B4DA A0 92              	    pop r2,r5 from [sp]
0000B4DB 90 9A              	    retf;
                            	AReturnDataAA10:
0000B4DC 40 92              	    r1=0 
0000B4DD A0 92              	    pop r2,r5 from [sp]
0000B4DE 90 9A              	    retf;
0000B4DF A0 92              	    pop r2,r5 from [sp]
0000B4E0 90 9A              	    retf;  
                            	    .ENDP
                            	.PUBLIC _Get_Data_IOA11
                            	.PUBLIC Get_Data_IOA11
                            	_Get_Data_IOA11: .PROC
                            	Get_Data_IOA11:
0000B4E1 A0 DA              	    push r2,r5 to [sp];  
0000B4E2 11 93 00 70        	    r1=  [P_IOA_Data]
0000B4E4 0A 95 FF F7        	    r2= 0xf7ff
0000B4E6 02 A3              	    r1= r1|r2
0000B4E7 02 43              	    cmp r1,r2
0000B4E8 03 5E              	    je AReturnDataAA11
0000B4E9 41 92              	    r1=1
0000B4EA A0 92              	    pop r2,r5 from [sp]
0000B4EB 90 9A              	    retf;
                            	AReturnDataAA11:
0000B4EC 40 92              	    r1=0 
0000B4ED A0 92              	    pop r2,r5 from [sp]
0000B4EE 90 9A              	    retf;
0000B4EF A0 92              	    pop r2,r5 from [sp]
0000B4F0 90 9A              	    retf;  
                            	    .ENDP  
                            	.PUBLIC _Get_Data_IOA12
                            	.PUBLIC Get_Data_IOA12
                            	_Get_Data_IOA12: .PROC
                            	Get_Data_IOA12:
0000B4F1 A0 DA              	    push r2,r5 to [sp];  
0000B4F2 11 93 00 70        	    r1=  [P_IOA_Data]
0000B4F4 0A 95 FF EF        	    r2= 0xefff
0000B4F6 02 A3              	    r1= r1|r2
0000B4F7 02 43              	    cmp r1,r2
0000B4F8 03 5E              	    je AReturnDataAA12
0000B4F9 41 92              	    r1=1
0000B4FA A0 92              	    pop r2,r5 from [sp]
0000B4FB 90 9A              	    retf;
                            	AReturnDataAA12:
0000B4FC 40 92              	    r1=0 
0000B4FD A0 92              	    pop r2,r5 from [sp]
0000B4FE 90 9A              	    retf;
0000B4FF A0 92              	    pop r2,r5 from [sp]
0000B500 90 9A              	    retf;  
                            	    .ENDP    
                            	.PUBLIC _Get_Data_IOA13
                            	.PUBLIC Get_Data_IOA13
                            	_Get_Data_IOA13:   .PROC 
                            	Get_Data_IOA13:
0000B501 A0 DA              	    push r2,r5 to [sp];  
0000B502 11 93 00 70        	    r1=  [P_IOA_Data]
0000B504 0A 95 FF DF        	    r2= 0xdfff
0000B506 02 A3              	    r1= r1|r2
0000B507 02 43              	    cmp r1,r2
0000B508 03 5E              	    je AReturnDataAA13
0000B509 41 92              	    r1=1
0000B50A A0 92              	    pop r2,r5 from [sp]
0000B50B 90 9A              	    retf;
                            	AReturnDataAA13:
0000B50C 40 92              	    r1=0 
0000B50D A0 92              	    pop r2,r5 from [sp]
0000B50E 90 9A              	    retf;
0000B50F A0 92              	    pop r2,r5 from [sp]
0000B510 90 9A              	    retf;  
                            	    .ENDP 
                            	.PUBLIC _Get_Data_IOA14
                            	.PUBLIC Get_Data_IOA14
                            	_Get_Data_IOA14:   .PROC 
                            	Get_Data_IOA14:
0000B511 A0 DA              	    push r2,r5 to [sp];  
0000B512 11 93 00 70        	    r1=  [P_IOA_Data]
0000B514 0A 95 FF BF        	    r2= 0xbfff
0000B516 02 A3              	    r1= r1|r2
0000B517 02 43              	    cmp r1,r2
0000B518 03 5E              	    je AReturnDataAA14
0000B519 41 92              	    r1=1
0000B51A A0 92              	    pop r2,r5 from [sp]
0000B51B 90 9A              	    retf;
                            	AReturnDataAA14:
0000B51C 40 92              	    r1=0 
0000B51D A0 92              	    pop r2,r5 from [sp]
0000B51E 90 9A              	    retf;
0000B51F A0 92              	    pop r2,r5 from [sp]
0000B520 90 9A              	    retf;  
                            	    .ENDP   
                            	.PUBLIC _Get_Data_IOA15
                            	.PUBLIC Get_Data_IOA15
                            	_Get_Data_IOA15:   .PROC 
                            	Get_Data_IOA15:
0000B521 A0 DA              	    push r2,r5 to [sp];  
0000B522 11 93 00 70        	    r1=  [P_IOA_Data]
0000B524 0A 95 7F FF        	    r2= 0xff7f
0000B526 02 A3              	    r1= r1|r2
0000B527 02 43              	    cmp r1,r2
0000B528 03 5E              	    je AReturnDataAA15
0000B529 41 92              	    r1=1
0000B52A A0 92              	    pop r2,r5 from [sp]
0000B52B 90 9A              	    retf;
                            	AReturnDataAA15:
0000B52C 40 92              	    r1=0 
0000B52D A0 92              	    pop r2,r5 from [sp]
0000B52E 90 9A              	    retf;
0000B52F A0 92              	    pop r2,r5 from [sp]
0000B530 90 9A              	    retf;  
                            	    .ENDP  
                            	.PUBLIC _Get_Buffer_IOB0
                            	.PUBLIC Get_Buffer_IOB0
                            	_Get_Buffer_IOB0:.PROC
                            	Get_Buffer_IOB0:
0000B531 A0 DA              	    push r2,r5 to [sp];  
0000B532 11 93 06 70        	    r1=  [P_IOB_Buffer]
0000B534 0A 95 FE FF        	    r2= 0xfffe
0000B536 02 A3              	    r1= r1|r2
0000B537 02 43              	    cmp r1,r2
0000B538 03 5E              	    je AReturnBufferB0
0000B539 41 92              	    r1=1
0000B53A A0 92              	    pop r2,r5 from [sp]
0000B53B 90 9A              	    retf;
                            	AReturnBufferB0:
0000B53C 40 92              	    r1=0 
0000B53D A0 92              	    pop r2,r5 from [sp]
0000B53E 90 9A              	    retf;
0000B53F A0 92              	    pop r2,r5 from [sp]
0000B540 90 9A              	    retf;  
                            	    .ENDP
                            	.PUBLIC _Get_Buffer_IOB1
                            	.PUBLIC Get_Buffer_IOB1
                            	_Get_Buffer_IOB1:.PROC
                            	Get_Buffer_IOB1:
0000B541 A0 DA              	    push r2,r5 to [sp];  
0000B542 11 93 06 70        	    r1=  [P_IOB_Buffer]
0000B544 0A 95 FD FF        	    r2= 0xfffd
0000B546 02 A3              	    r1= r1|r2
0000B547 02 43              	    cmp r1,r2
0000B548 03 5E              	    je AReturnBufferB1
0000B549 41 92              	    r1=1
0000B54A A0 92              	    pop r2,r5 from [sp]
0000B54B 90 9A              	    retf;
                            	AReturnBufferB1:
0000B54C 40 92              	    r1=0 
0000B54D A0 92              	    pop r2,r5 from [sp]
0000B54E 90 9A              	    retf;
0000B54F A0 92              	    pop r2,r5 from [sp]
0000B550 90 9A              	    retf;  
                            	    .ENDP
                            	.PUBLIC _Get_Buffer_IOB2
                            	.PUBLIC Get_Buffer_IOB2
                            	_Get_Buffer_IOB2:.PROC
                            	Get_Buffer_IOB2:
0000B551 A0 DA              	    push r2,r5 to [sp];  
0000B552 11 93 06 70        	    r1=  [P_IOB_Buffer]
0000B554 0A 95 FB FF        	    r2= 0xfffb
0000B556 02 A3              	    r1= r1|r2
0000B557 02 43              	    cmp r1,r2
0000B558 03 5E              	    je AReturnBufferB2
0000B559 41 92              	    r1=1
0000B55A A0 92              	    pop r2,r5 from [sp]
0000B55B 90 9A              	    retf;
                            	AReturnBufferB2:
0000B55C 40 92              	    r1=0 
0000B55D A0 92              	    pop r2,r5 from [sp]
0000B55E 90 9A              	    retf;
0000B55F A0 92              	    pop r2,r5 from [sp]
0000B560 90 9A              	    retf;  
                            	    .ENDP
                            	.PUBLIC _Get_Buffer_IOB3
                            	.PUBLIC Get_Buffer_IOB3
                            	_Get_Buffer_IOB3:.PROC
                            	Get_Buffer_IOB3:
0000B561 A0 DA              	    push r2,r5 to [sp];  
0000B562 11 93 06 70        	    r1=  [P_IOB_Buffer]
0000B564 0A 95 F7 FF        	    r2= 0xfff7
0000B566 02 A3              	    r1= r1|r2
0000B567 02 43              	    cmp r1,r2
0000B568 03 5E              	    je AReturnBufferB3
0000B569 41 92              	    r1=1
0000B56A A0 92              	    pop r2,r5 from [sp]
0000B56B 90 9A              	    retf;
                            	AReturnBufferB3:
0000B56C 40 92              	    r1=0 
0000B56D A0 92              	    pop r2,r5 from [sp]
0000B56E 90 9A              	    retf;
0000B56F A0 92              	    pop r2,r5 from [sp]
0000B570 90 9A              	    retf;  
                            	    .ENDP  
                            	.PUBLIC _Get_Buffer_IOB4
                            	.PUBLIC Get_Buffer_IOB4
                            	_Get_Buffer_IOB4:.PROC
                            	Get_Buffer_IOB4:
0000B571 A0 DA              	    push r2,r5 to [sp];  
0000B572 11 93 06 70        	    r1=  [P_IOB_Buffer]
0000B574 0A 95 EF FF        	    r2= 0xffef
0000B576 02 A3              	    r1= r1|r2
0000B577 02 43              	    cmp r1,r2
0000B578 03 5E              	    je AReturnBufferB4
0000B579 41 92              	    r1=1
0000B57A A0 92              	    pop r2,r5 from [sp]
0000B57B 90 9A              	    retf;
                            	AReturnBufferB4:
0000B57C 40 92              	    r1=0 
0000B57D A0 92              	    pop r2,r5 from [sp]
0000B57E 90 9A              	    retf;
0000B57F A0 92              	    pop r2,r5 from [sp]
0000B580 90 9A              	    retf;  
                            	    .ENDP    
                            	.PUBLIC _Get_Buffer_IOB5
                            	.PUBLIC Get_Buffer_IOB5
                            	_Get_Buffer_IOB5:.PROC
                            	Get_Buffer_IOB5:
0000B581 A0 DA              	    push r2,r5 to [sp];  
0000B582 11 93 06 70        	    r1=  [P_IOB_Buffer]
0000B584 0A 95 DF FF        	    r2= 0xffdf
0000B586 02 A3              	    r1= r1|r2
0000B587 02 43              	    cmp r1,r2
0000B588 03 5E              	    je AReturnBufferB5
0000B589 41 92              	    r1=1
0000B58A A0 92              	    pop r2,r5 from [sp]
0000B58B 90 9A              	    retf;
                            	AReturnBufferB5:
0000B58C 40 92              	    r1=0 
0000B58D A0 92              	    pop r2,r5 from [sp]
0000B58E 90 9A              	    retf;
0000B58F A0 92              	    pop r2,r5 from [sp]
0000B590 90 9A              	    retf;  
                            	    .ENDP 
                            	.PUBLIC _Get_Buffer_IOB6
                            	.PUBLIC Get_Buffer_IOB6
                            	_Get_Buffer_IOB6:.PROC
                            	Get_Buffer_IOB6:
0000B591 A0 DA              	    push r2,r5 to [sp];  
0000B592 11 93 06 70        	    r1=  [P_IOB_Buffer]
0000B594 0A 95 BF FF        	    r2= 0xffbf
0000B596 02 A3              	    r1= r1|r2
0000B597 02 43              	    cmp r1,r2
0000B598 03 5E              	    je AReturnBufferB6
0000B599 41 92              	    r1=1
0000B59A A0 92              	    pop r2,r5 from [sp]
0000B59B 90 9A              	    retf;
                            	AReturnBufferB6:
0000B59C 40 92              	    r1=0 
0000B59D A0 92              	    pop r2,r5 from [sp]
0000B59E 90 9A              	    retf;
0000B59F A0 92              	    pop r2,r5 from [sp]
0000B5A0 90 9A              	    retf;  
                            	    .ENDP   
                            	.PUBLIC _Get_Buffer_IOB7
                            	.PUBLIC Get_Buffer_IOB7
                            	_Get_Buffer_IOB7:.PROC
                            	Get_Buffer_IOB7:
0000B5A1 A0 DA              	    push r2,r5 to [sp];  
0000B5A2 11 93 06 70        	    r1=  [P_IOB_Buffer]
0000B5A4 0A 95 7F FF        	    r2= 0xff7f
0000B5A6 02 A3              	    r1= r1|r2
0000B5A7 02 43              	    cmp r1,r2
0000B5A8 03 5E              	    je AReturnBufferB7
0000B5A9 41 92              	    r1=1
0000B5AA A0 92              	    pop r2,r5 from [sp]
0000B5AB 90 9A              	    retf;
                            	AReturnBufferB7:
0000B5AC 40 92              	    r1=0 
0000B5AD A0 92              	    pop r2,r5 from [sp]
0000B5AE 90 9A              	    retf;
0000B5AF A0 92              	    pop r2,r5 from [sp]
0000B5B0 90 9A              	    retf;  
                            	    .ENDP  
                            	.PUBLIC _Get_Buffer_IOB8
                            	.PUBLIC Get_Buffer_IOB8
                            	_Get_Buffer_IOB8:.PROC
                            	Get_Buffer_IOB8:
0000B5B1 A0 DA              	    push r2,r5 to [sp];  
0000B5B2 11 93 06 70        	    r1=  [P_IOB_Buffer]
0000B5B4 0A 95 FF FE        	    r2= 0xfeff
0000B5B6 02 A3              	    r1= r1|r2
0000B5B7 02 43              	    cmp r1,r2
0000B5B8 03 5E              	    je AReturnBufferB8
0000B5B9 41 92              	    r1=1
0000B5BA A0 92              	    pop r2,r5 from [sp]
0000B5BB 90 9A              	    retf;
                            	AReturnBufferB8:
0000B5BC 40 92              	    r1=0 
0000B5BD A0 92              	    pop r2,r5 from [sp]
0000B5BE 90 9A              	    retf;
0000B5BF A0 92              	    pop r2,r5 from [sp]
0000B5C0 90 9A              	    retf;  
                            	    .ENDP
                            	.PUBLIC _Get_Buffer_IOB9
                            	.PUBLIC Get_Buffer_IOB9
                            	_Get_Buffer_IOB9:.PROC
                            	Get_Buffer_IOB9:
0000B5C1 A0 DA              	    push r2,r5 to [sp];  
0000B5C2 11 93 06 70        	    r1=  [P_IOB_Buffer]
0000B5C4 0A 95 FF FD        	    r2= 0xfdff
0000B5C6 02 A3              	    r1= r1|r2
0000B5C7 02 43              	    cmp r1,r2
0000B5C8 03 5E              	    je AReturnBufferB9
0000B5C9 41 92              	    r1=1
0000B5CA A0 92              	    pop r2,r5 from [sp]
0000B5CB 90 9A              	    retf;
                            	AReturnBufferB9:
0000B5CC 40 92              	    r1=0 
0000B5CD A0 92              	    pop r2,r5 from [sp]
0000B5CE 90 9A              	    retf;
0000B5CF A0 92              	    pop r2,r5 from [sp]
0000B5D0 90 9A              	    retf;  
                            	    .ENDP
                            	.PUBLIC _Get_Buffer_IOB10
                            	.PUBLIC Get_Buffer_IOB10
                            	_Get_Buffer_IOB10:   .PROC       
                            	Get_Buffer_IOB10:
0000B5D1 A0 DA              	    push r2,r5 to [sp];  
0000B5D2 11 93 06 70        	    r1=  [P_IOB_Buffer]
0000B5D4 0A 95 FF FB        	    r2= 0xfbff
0000B5D6 02 A3              	    r1= r1|r2
0000B5D7 02 43              	    cmp r1,r2
0000B5D8 03 5E              	    je AReturnBufferB10
0000B5D9 41 92              	    r1=1
0000B5DA A0 92              	    pop r2,r5 from [sp]
0000B5DB 90 9A              	    retf;
                            	AReturnBufferB10:
0000B5DC 40 92              	    r1=0 
0000B5DD A0 92              	    pop r2,r5 from [sp]
0000B5DE 90 9A              	    retf;
0000B5DF A0 92              	    pop r2,r5 from [sp]
0000B5E0 90 9A              	    retf;  
                            	    .ENDP
                            	.PUBLIC _Get_Buffer_IOB11
                            	.PUBLIC Get_Buffer_IOB11
                            	_Get_Buffer_IOB11: .PROC
                            	Get_Buffer_IOB11:
0000B5E1 A0 DA              	    push r2,r5 to [sp];  
0000B5E2 11 93 06 70        	    r1=  [P_IOB_Buffer]
0000B5E4 0A 95 FF F7        	    r2= 0xf7ff
0000B5E6 02 A3              	    r1= r1|r2
0000B5E7 02 43              	    cmp r1,r2
0000B5E8 03 5E              	    je AReturnBufferB11
0000B5E9 41 92              	    r1=1
0000B5EA A0 92              	    pop r2,r5 from [sp]
0000B5EB 90 9A              	    retf;
                            	AReturnBufferB11:
0000B5EC 40 92              	    r1=0 
0000B5ED A0 92              	    pop r2,r5 from [sp]
0000B5EE 90 9A              	    retf;
0000B5EF A0 92              	    pop r2,r5 from [sp]
0000B5F0 90 9A              	    retf;  
                            	    .ENDP  
                            	.PUBLIC _Get_Buffer_IOB12
                            	.PUBLIC Get_Buffer_IOB12
                            	_Get_Buffer_IOB12: .PROC
                            	Get_Buffer_IOB12:
0000B5F1 A0 DA              	    push r2,r5 to [sp];  
0000B5F2 11 93 06 70        	    r1=  [P_IOB_Buffer]
0000B5F4 0A 95 FF EF        	    r2= 0xefff
0000B5F6 02 A3              	    r1= r1|r2
0000B5F7 02 43              	    cmp r1,r2
0000B5F8 03 5E              	    je AReturnBufferB12
0000B5F9 41 92              	    r1=1
0000B5FA A0 92              	    pop r2,r5 from [sp]
0000B5FB 90 9A              	    retf;
                            	AReturnBufferB12:
0000B5FC 40 92              	    r1=0 
0000B5FD A0 92              	    pop r2,r5 from [sp]
0000B5FE 90 9A              	    retf;
0000B5FF A0 92              	    pop r2,r5 from [sp]
0000B600 90 9A              	    retf;  
                            	    .ENDP    
                            	.PUBLIC _Get_Buffer_IOB13
                            	.PUBLIC Get_Buffer_IOB13
                            	_Get_Buffer_IOB13:   .PROC 
                            	Get_Buffer_IOB13:
0000B601 A0 DA              	    push r2,r5 to [sp];  
0000B602 11 93 06 70        	    r1=  [P_IOB_Buffer]
0000B604 0A 95 FF DF        	    r2= 0xdfff
0000B606 02 A3              	    r1= r1|r2
0000B607 02 43              	    cmp r1,r2
0000B608 03 5E              	    je AReturnBufferB13
0000B609 41 92              	    r1=1
0000B60A A0 92              	    pop r2,r5 from [sp]
0000B60B 90 9A              	    retf;
                            	AReturnBufferB13:
0000B60C 40 92              	    r1=0 
0000B60D A0 92              	    pop r2,r5 from [sp]
0000B60E 90 9A              	    retf;
0000B60F A0 92              	    pop r2,r5 from [sp]
0000B610 90 9A              	    retf;  
                            	    .ENDP 
                            	.PUBLIC _Get_Buffer_IOB14
                            	.PUBLIC Get_Buffer_IOB14
                            	_Get_Buffer_IOB14:   .PROC 
                            	Get_Buffer_IOB14:
0000B611 A0 DA              	    push r2,r5 to [sp];  
0000B612 11 93 06 70        	    r1=  [P_IOB_Buffer]
0000B614 0A 95 FF BF        	    r2= 0xbfff
0000B616 02 A3              	    r1= r1|r2
0000B617 02 43              	    cmp r1,r2
0000B618 03 5E              	    je AReturnBufferB14
0000B619 41 92              	    r1=1
0000B61A A0 92              	    pop r2,r5 from [sp]
0000B61B 90 9A              	    retf;
                            	AReturnBufferB14:
0000B61C 40 92              	    r1=0 
0000B61D A0 92              	    pop r2,r5 from [sp]
0000B61E 90 9A              	    retf;
0000B61F A0 92              	    pop r2,r5 from [sp]
0000B620 90 9A              	    retf;  
                            	    .ENDP   
                            	.PUBLIC _Get_Buffer_IOB15
                            	.PUBLIC Get_Buffer_IOB15
                            	_Get_Buffer_IOB15:   .PROC 
                            	Get_Buffer_IOB15:
0000B621 A0 DA              	    push r2,r5 to [sp];  
0000B622 11 93 06 70        	    r1=  [P_IOB_Buffer]
0000B624 0A 95 7F FF        	    r2= 0xff7f
0000B626 02 A3              	    r1= r1|r2
0000B627 02 43              	    cmp r1,r2
0000B628 03 5E              	    je AReturnBufferB15
0000B629 41 92              	    r1=1
0000B62A A0 92              	    pop r2,r5 from [sp]
0000B62B 90 9A              	    retf;
                            	AReturnBufferB15:
0000B62C 40 92              	    r1=0 
0000B62D A0 92              	    pop r2,r5 from [sp]
0000B62E 90 9A              	    retf;
0000B62F A0 92              	    pop r2,r5 from [sp]
0000B630 90 9A              	    retf;  
                            	    .ENDP  
                            	.PUBLIC _Get_Data_IOB0
                            	.PUBLIC Get_Data_IOB0
                            	_Get_Data_IOB0:.PROC
                            	Get_Data_IOB0:
0000B631 A0 DA              	    push r2,r5 to [sp];  
0000B632 11 93 05 70        	    r1=  [P_IOB_Data]
0000B634 0A 95 FE FF        	    r2= 0xfffe
0000B636 02 A3              	    r1= r1|r2
0000B637 02 43              	    cmp r1,r2
0000B638 03 5E              	    je AReturnDataBB0
0000B639 41 92              	    r1=1
0000B63A A0 92              	    pop r2,r5 from [sp]
0000B63B 90 9A              	    retf;
                            	AReturnDataBB0:
0000B63C 40 92              	    r1=0 
0000B63D A0 92              	    pop r2,r5 from [sp]
0000B63E 90 9A              	    retf;
0000B63F A0 92              	    pop r2,r5 from [sp]
0000B640 90 9A              	    retf;  
                            	    .ENDP
                            	.PUBLIC _Get_Data_IOB1
                            	.PUBLIC Get_Data_IOB1
                            	_Get_Data_IOB1:.PROC
                            	Get_Data_IOB1:
0000B641 A0 DA              	    push r2,r5 to [sp];  
0000B642 11 93 05 70        	    r1=  [P_IOB_Data]
0000B644 0A 95 FD FF        	    r2= 0xfffd
0000B646 02 A3              	    r1= r1|r2
0000B647 02 43              	    cmp r1,r2
0000B648 03 5E              	    je AReturnDataBB1
0000B649 41 92              	    r1=1
0000B64A A0 92              	    pop r2,r5 from [sp]
0000B64B 90 9A              	    retf;
                            	AReturnDataBB1:
0000B64C 40 92              	    r1=0 
0000B64D A0 92              	    pop r2,r5 from [sp]
0000B64E 90 9A              	    retf;
0000B64F A0 92              	    pop r2,r5 from [sp]
0000B650 90 9A              	    retf;  
                            	    .ENDP
                            	.PUBLIC _Get_Data_IOB2
                            	.PUBLIC Get_Data_IOB2
                            	_Get_Data_IOB2:.PROC
                            	Get_Data_IOB2:
0000B651 A0 DA              	    push r2,r5 to [sp];  
0000B652 11 93 05 70        	    r1=  [P_IOB_Data]
0000B654 0A 95 FB FF        	    r2= 0xfffb
0000B656 02 A3              	    r1= r1|r2
0000B657 02 43              	    cmp r1,r2
0000B658 03 5E              	    je AReturnDataBB2
0000B659 41 92              	    r1=1
0000B65A A0 92              	    pop r2,r5 from [sp]
0000B65B 90 9A              	    retf;
                            	AReturnDataBB2:
0000B65C 40 92              	    r1=0 
0000B65D A0 92              	    pop r2,r5 from [sp]
0000B65E 90 9A              	    retf;
0000B65F A0 92              	    pop r2,r5 from [sp]
0000B660 90 9A              	    retf;  
                            	    .ENDP
                            	.PUBLIC _Get_Data_IOB3
                            	.PUBLIC Get_Data_IOB3
                            	_Get_Data_IOB3:.PROC
                            	Get_Data_IOB3:
0000B661 A0 DA              	    push r2,r5 to [sp];  
0000B662 11 93 05 70        	    r1=  [P_IOB_Data]
0000B664 0A 95 F7 FF        	    r2= 0xfff7
0000B666 02 A3              	    r1= r1|r2
0000B667 02 43              	    cmp r1,r2
0000B668 03 5E              	    je AReturnDataBB3
0000B669 41 92              	    r1=1
0000B66A A0 92              	    pop r2,r5 from [sp]
0000B66B 90 9A              	    retf;
                            	AReturnDataBB3:
0000B66C 40 92              	    r1=0 
0000B66D A0 92              	    pop r2,r5 from [sp]
0000B66E 90 9A              	    retf;
0000B66F A0 92              	    pop r2,r5 from [sp]
0000B670 90 9A              	    retf;  
                            	    .ENDP  
                            	.PUBLIC _Get_Data_IOB4
                            	.PUBLIC Get_Data_IOB4
                            	_Get_Data_IOB4:.PROC
                            	Get_Data_IOB4:
0000B671 A0 DA              	    push r2,r5 to [sp];  
0000B672 11 93 05 70        	    r1=  [P_IOB_Data]
0000B674 0A 95 EF FF        	    r2= 0xffef
0000B676 02 A3              	    r1= r1|r2
0000B677 02 43              	    cmp r1,r2
0000B678 03 5E              	    je AReturnDataBB4
0000B679 41 92              	    r1=1
0000B67A A0 92              	    pop r2,r5 from [sp]
0000B67B 90 9A              	    retf;
                            	AReturnDataBB4:
0000B67C 40 92              	    r1=0 
0000B67D A0 92              	    pop r2,r5 from [sp]
0000B67E 90 9A              	    retf;
0000B67F A0 92              	    pop r2,r5 from [sp]
0000B680 90 9A              	    retf;  
                            	    .ENDP    
                            	.PUBLIC _Get_Data_IOB5
                            	.PUBLIC Get_Data_IOB5
                            	_Get_Data_IOB5:.PROC
                            	Get_Data_IOB5:
0000B681 A0 DA              	    push r2,r5 to [sp];  
0000B682 11 93 05 70        	    r1=  [P_IOB_Data]
0000B684 0A 95 DF FF        	    r2= 0xffdf
0000B686 02 A3              	    r1= r1|r2
0000B687 02 43              	    cmp r1,r2
0000B688 03 5E              	    je AReturnDataBB5
0000B689 41 92              	    r1=1
0000B68A A0 92              	    pop r2,r5 from [sp]
0000B68B 90 9A              	    retf;
                            	AReturnDataBB5:
0000B68C 40 92              	    r1=0 
0000B68D A0 92              	    pop r2,r5 from [sp]
0000B68E 90 9A              	    retf;
0000B68F A0 92              	    pop r2,r5 from [sp]
0000B690 90 9A              	    retf;  
                            	    .ENDP 
                            	.PUBLIC _Get_Data_IOB6
                            	.PUBLIC Get_Data_IOB6
                            	_Get_Data_IOB6:.PROC
                            	Get_Data_IOB6:
0000B691 A0 DA              	    push r2,r5 to [sp];  
0000B692 11 93 05 70        	    r1=  [P_IOB_Data]
0000B694 0A 95 BF FF        	    r2= 0xffbf
0000B696 02 A3              	    r1= r1|r2
0000B697 02 43              	    cmp r1,r2
0000B698 03 5E              	    je AReturnDataBB6
0000B699 41 92              	    r1=1
0000B69A A0 92              	    pop r2,r5 from [sp]
0000B69B 90 9A              	    retf;
                            	AReturnDataBB6:
0000B69C 40 92              	    r1=0 
0000B69D A0 92              	    pop r2,r5 from [sp]
0000B69E 90 9A              	    retf;
0000B69F A0 92              	    pop r2,r5 from [sp]
0000B6A0 90 9A              	    retf;  
                            	    .ENDP   
                            	.PUBLIC _Get_Data_IOB7
                            	.PUBLIC Get_Data_IOB7
                            	_Get_Data_IOB7:.PROC
                            	Get_Data_IOB7:
0000B6A1 A0 DA              	    push r2,r5 to [sp];  
0000B6A2 11 93 05 70        	    r1=  [P_IOB_Data]
0000B6A4 0A 95 7F FF        	    r2= 0xff7f
0000B6A6 02 A3              	    r1= r1|r2
0000B6A7 02 43              	    cmp r1,r2
0000B6A8 03 5E              	    je AReturnDataBB7
0000B6A9 41 92              	    r1=1
0000B6AA A0 92              	    pop r2,r5 from [sp]
0000B6AB 90 9A              	    retf;
                            	AReturnDataBB7:
0000B6AC 40 92              	    r1=0 
0000B6AD A0 92              	    pop r2,r5 from [sp]
0000B6AE 90 9A              	    retf;
0000B6AF A0 92              	    pop r2,r5 from [sp]
0000B6B0 90 9A              	    retf;  
                            	    .ENDP  
                            	.PUBLIC _Get_Data_IOB8
                            	.PUBLIC Get_Data_IOB8
                            	_Get_Data_IOB8:.PROC
                            	Get_Data_IOB8:
0000B6B1 A0 DA              	    push r2,r5 to [sp];  
0000B6B2 11 93 05 70        	    r1=  [P_IOB_Data]
0000B6B4 0A 95 FF FE        	    r2= 0xfeff
0000B6B6 02 A3              	    r1= r1|r2
0000B6B7 02 43              	    cmp r1,r2
0000B6B8 03 5E              	    je AReturnDataBB8
0000B6B9 41 92              	    r1=1
0000B6BA A0 92              	    pop r2,r5 from [sp]
0000B6BB 90 9A              	    retf;
                            	AReturnDataBB8:
0000B6BC 40 92              	    r1=0 
0000B6BD A0 92              	    pop r2,r5 from [sp]
0000B6BE 90 9A              	    retf;
0000B6BF A0 92              	    pop r2,r5 from [sp]
0000B6C0 90 9A              	    retf;  
                            	    .ENDP
                            	.PUBLIC _Get_Data_IOB9
                            	.PUBLIC Get_Data_IOB9
                            	_Get_Data_IOB9:.PROC
                            	Get_Data_IOB9:
0000B6C1 A0 DA              	    push r2,r5 to [sp];  
0000B6C2 11 93 05 70        	    r1=  [P_IOB_Data]
0000B6C4 0A 95 FF FD        	    r2= 0xfdff
0000B6C6 02 A3              	    r1= r1|r2
0000B6C7 02 43              	    cmp r1,r2
0000B6C8 03 5E              	    je AReturnDataBB9
0000B6C9 41 92              	    r1=1
0000B6CA A0 92              	    pop r2,r5 from [sp]
0000B6CB 90 9A              	    retf;
                            	AReturnDataBB9:
0000B6CC 40 92              	    r1=0 
0000B6CD A0 92              	    pop r2,r5 from [sp]
0000B6CE 90 9A              	    retf;
0000B6CF A0 92              	    pop r2,r5 from [sp]
0000B6D0 90 9A              	    retf;  
                            	    .ENDP
                            	.PUBLIC _Get_Data_IOB10
                            	.PUBLIC Get_Data_IOB10
                            	_Get_Data_IOB10:   .PROC       
                            	Get_Data_IOB10:
0000B6D1 A0 DA              	    push r2,r5 to [sp];  
0000B6D2 11 93 05 70        	    r1=  [P_IOB_Data]
0000B6D4 0A 95 FF FB        	    r2= 0xfbff
0000B6D6 02 A3              	    r1= r1|r2
0000B6D7 02 43              	    cmp r1,r2
0000B6D8 03 5E              	    je AReturnDataBB10
0000B6D9 41 92              	    r1=1
0000B6DA A0 92              	    pop r2,r5 from [sp]
0000B6DB 90 9A              	    retf;
                            	AReturnDataBB10:
0000B6DC 40 92              	    r1=0 
0000B6DD A0 92              	    pop r2,r5 from [sp]
0000B6DE 90 9A              	    retf;
0000B6DF A0 92              	    pop r2,r5 from [sp]
0000B6E0 90 9A              	    retf;  
                            	    .ENDP
                            	.PUBLIC _Get_Data_IOB11
                            	.PUBLIC Get_Data_IOB11
                            	_Get_Data_IOB11: .PROC
                            	Get_Data_IOB11:
0000B6E1 A0 DA              	    push r2,r5 to [sp];  
0000B6E2 11 93 05 70        	    r1=  [P_IOB_Data]
0000B6E4 0A 95 FF F7        	    r2= 0xf7ff
0000B6E6 02 A3              	    r1= r1|r2
0000B6E7 02 43              	    cmp r1,r2
0000B6E8 03 5E              	    je AReturnDataBB11
0000B6E9 41 92              	    r1=1
0000B6EA A0 92              	    pop r2,r5 from [sp]
0000B6EB 90 9A              	    retf;
                            	AReturnDataBB11:
0000B6EC 40 92              	    r1=0 
0000B6ED A0 92              	    pop r2,r5 from [sp]
0000B6EE 90 9A              	    retf;
0000B6EF A0 92              	    pop r2,r5 from [sp]
0000B6F0 90 9A              	    retf;  
                            	    .ENDP  
                            	.PUBLIC _Get_Data_IOB12
                            	.PUBLIC Get_Data_IOB12
                            	_Get_Data_IOB12: .PROC
                            	Get_Data_IOB12:
0000B6F1 A0 DA              	    push r2,r5 to [sp];  
0000B6F2 11 93 05 70        	    r1=  [P_IOB_Data]
0000B6F4 0A 95 FF EF        	    r2= 0xefff
0000B6F6 02 A3              	    r1= r1|r2
0000B6F7 02 43              	    cmp r1,r2
0000B6F8 03 5E              	    je AReturnDataBB12
0000B6F9 41 92              	    r1=1
0000B6FA A0 92              	    pop r2,r5 from [sp]
0000B6FB 90 9A              	    retf;
                            	AReturnDataBB12:
0000B6FC 40 92              	    r1=0 
0000B6FD A0 92              	    pop r2,r5 from [sp]
0000B6FE 90 9A              	    retf;
0000B6FF A0 92              	    pop r2,r5 from [sp]
0000B700 90 9A              	    retf;  
                            	    .ENDP    
                            	.PUBLIC _Get_Data_IOB13
                            	.PUBLIC Get_Data_IOB13
                            	_Get_Data_IOB13:   .PROC 
                            	Get_Data_IOB13:
0000B701 A0 DA              	    push r2,r5 to [sp];  
0000B702 11 93 05 70        	    r1=  [P_IOB_Data]
0000B704 0A 95 FF DF        	    r2= 0xdfff
0000B706 02 A3              	    r1= r1|r2
0000B707 02 43              	    cmp r1,r2
0000B708 03 5E              	    je AReturnDataBB13
0000B709 41 92              	    r1=1
0000B70A A0 92              	    pop r2,r5 from [sp]
0000B70B 90 9A              	    retf;
                            	AReturnDataBB13:
0000B70C 40 92              	    r1=0 
0000B70D A0 92              	    pop r2,r5 from [sp]
0000B70E 90 9A              	    retf;
0000B70F A0 92              	    pop r2,r5 from [sp]
0000B710 90 9A              	    retf;  
                            	    .ENDP 
                            	.PUBLIC _Get_Data_IOB14
                            	.PUBLIC Get_Data_IOB14
                            	_Get_Data_IOB14:   .PROC 
                            	Get_Data_IOB14:
0000B711 A0 DA              	    push r2,r5 to [sp];  
0000B712 11 93 05 70        	    r1=  [P_IOB_Data]
0000B714 0A 95 FF BF        	    r2= 0xbfff
0000B716 02 A3              	    r1= r1|r2
0000B717 02 43              	    cmp r1,r2
0000B718 03 5E              	    je AReturnDataBB14
0000B719 41 92              	    r1=1
0000B71A A0 92              	    pop r2,r5 from [sp]
0000B71B 90 9A              	    retf;
                            	AReturnDataBB14:
0000B71C 40 92              	    r1=0 
0000B71D A0 92              	    pop r2,r5 from [sp]
0000B71E 90 9A              	    retf;
0000B71F A0 92              	    pop r2,r5 from [sp]
0000B720 90 9A              	    retf;  
                            	    .ENDP   
                            	.PUBLIC _Get_Data_IOB15
                            	.PUBLIC Get_Data_IOB15
                            	_Get_Data_IOB15:   .PROC 
                            	Get_Data_IOB15:
0000B721 A0 DA              	    push r2,r5 to [sp];  
0000B722 11 93 05 70        	    r1=  [P_IOB_Data]
0000B724 0A 95 7F FF        	    r2= 0xff7f
0000B726 02 A3              	    r1= r1|r2
0000B727 02 43              	    cmp r1,r2
0000B728 03 5E              	    je AReturnDataBB15
0000B729 41 92              	    r1=1
0000B72A A0 92              	    pop r2,r5 from [sp]
0000B72B 90 9A              	    retf;
                            	AReturnDataBB15:
0000B72C 40 92              	    r1=0 
0000B72D A0 92              	    pop r2,r5 from [sp]
0000B72E 90 9A              	    retf;
0000B72F A0 92              	    pop r2,r5 from [sp]
0000B730 90 9A              	    retf;  
                            	    .ENDP                                            
0 error(s), 0 warning(s).


























































